
pacemaker.elf:     file format elf32-littlenios2
pacemaker.elf
architecture: nios2:r1, flags 0x00000112:
EXEC_P, HAS_SYMS, D_PAGED
start address 0x00800244

Program Header:
    LOAD off    0x00001000 vaddr 0x00800000 paddr 0x00800000 align 2**12
         filesz 0x00000020 memsz 0x00000020 flags r-x
    LOAD off    0x00001020 vaddr 0x00800020 paddr 0x00800020 align 2**12
         filesz 0x0001fc80 memsz 0x0001fc80 flags r-x
    LOAD off    0x00020ca0 vaddr 0x0081fca0 paddr 0x0082197c align 2**12
         filesz 0x00001cdc memsz 0x00001cdc flags rw-
    LOAD off    0x00023658 vaddr 0x00823658 paddr 0x00823658 align 2**12
         filesz 0x00000000 memsz 0x00000160 flags rw-

Sections:
Idx Name          Size      VMA       LMA       File off  Algn
  0 .entry        00000020  00800000  00800000  00001000  2**5
                  CONTENTS, ALLOC, LOAD, READONLY, CODE
  1 .exceptions   00000224  00800020  00800020  00001020  2**2
                  CONTENTS, ALLOC, LOAD, READONLY, CODE
  2 .text         0001f29c  00800244  00800244  00001244  2**2
                  CONTENTS, ALLOC, LOAD, READONLY, CODE
  3 .rodata       000007c0  0081f4e0  0081f4e0  000204e0  2**2
                  CONTENTS, ALLOC, LOAD, READONLY, DATA
  4 .rwdata       00001cdc  0081fca0  0082197c  00020ca0  2**2
                  CONTENTS, ALLOC, LOAD, DATA, SMALL_DATA
  5 .bss          00000160  00823658  00823658  00023658  2**2
                  ALLOC, SMALL_DATA
  6 .sdram        00000000  008237b8  008237b8  0002297c  2**0
                  CONTENTS
  7 .onchip_mem   00000000  01008000  01008000  0002297c  2**0
                  CONTENTS
  8 .comment      00000023  00000000  00000000  0002297c  2**0
                  CONTENTS, READONLY
  9 .debug_aranges 00001420  00000000  00000000  000229a0  2**3
                  CONTENTS, READONLY, DEBUGGING
 10 .debug_info   0003511b  00000000  00000000  00023dc0  2**0
                  CONTENTS, READONLY, DEBUGGING
 11 .debug_abbrev 0000cf3c  00000000  00000000  00058edb  2**0
                  CONTENTS, READONLY, DEBUGGING
 12 .debug_line   0001280e  00000000  00000000  00065e17  2**0
                  CONTENTS, READONLY, DEBUGGING
 13 .debug_frame  00002e74  00000000  00000000  00078628  2**2
                  CONTENTS, READONLY, DEBUGGING
 14 .debug_str    0000513a  00000000  00000000  0007b49c  2**0
                  CONTENTS, READONLY, DEBUGGING
 15 .debug_loc    00024b7d  00000000  00000000  000805d6  2**0
                  CONTENTS, READONLY, DEBUGGING
 16 .debug_alt_sim_info 00000060  00000000  00000000  000a5154  2**2
                  CONTENTS, READONLY, DEBUGGING
 17 .debug_ranges 000020b8  00000000  00000000  000a51b8  2**3
                  CONTENTS, READONLY, DEBUGGING
 18 .thread_model 00000003  00000000  00000000  000ab15c  2**0
                  CONTENTS, READONLY
 19 .cpu          00000003  00000000  00000000  000ab15f  2**0
                  CONTENTS, READONLY
 20 .qsys         00000001  00000000  00000000  000ab162  2**0
                  CONTENTS, READONLY
 21 .simulation_enabled 00000001  00000000  00000000  000ab163  2**0
                  CONTENTS, READONLY
 22 .stderr_dev   00000009  00000000  00000000  000ab164  2**0
                  CONTENTS, READONLY
 23 .stdin_dev    00000009  00000000  00000000  000ab16d  2**0
                  CONTENTS, READONLY
 24 .stdout_dev   00000009  00000000  00000000  000ab176  2**0
                  CONTENTS, READONLY
 25 .sopc_system_name 0000000c  00000000  00000000  000ab17f  2**0
                  CONTENTS, READONLY
 26 .quartus_project_dir 0000004d  00000000  00000000  000ab18b  2**0
                  CONTENTS, READONLY
 27 .jdi          00005145  00000000  00000000  000ab1d8  2**0
                  CONTENTS, READONLY
SYMBOL TABLE:
00800000 l    d  .entry	00000000 .entry
00800020 l    d  .exceptions	00000000 .exceptions
00800244 l    d  .text	00000000 .text
0081f4e0 l    d  .rodata	00000000 .rodata
0081fca0 l    d  .rwdata	00000000 .rwdata
00823658 l    d  .bss	00000000 .bss
008237b8 l    d  .sdram	00000000 .sdram
01008000 l    d  .onchip_mem	00000000 .onchip_mem
00000000 l    d  .comment	00000000 .comment
00000000 l    d  .debug_aranges	00000000 .debug_aranges
00000000 l    d  .debug_info	00000000 .debug_info
00000000 l    d  .debug_abbrev	00000000 .debug_abbrev
00000000 l    d  .debug_line	00000000 .debug_line
00000000 l    d  .debug_frame	00000000 .debug_frame
00000000 l    d  .debug_str	00000000 .debug_str
00000000 l    d  .debug_loc	00000000 .debug_loc
00000000 l    d  .debug_alt_sim_info	00000000 .debug_alt_sim_info
00000000 l    d  .debug_ranges	00000000 .debug_ranges
00000000 l    df *ABS*	00000000 ../pacemaker_bsp//obj/HAL/src/crt0.o
0080028c l       .text	00000000 alt_after_alt_main
00000000 l    df *ABS*	00000000 alt_irq_handler.c
00000000 l    df *ABS*	00000000 alt_instruction_exception_entry.c
00000000 l    df *ABS*	00000000 main.c
00000000 l    df *ABS*	00000000 sccharts.c
00000000 l    df *ABS*	00000000 libgcc2.c
00000000 l    df *ABS*	00000000 adddf3.c
00000000 l    df *ABS*	00000000 gedf2.c
00000000 l    df *ABS*	00000000 ledf2.c
00000000 l    df *ABS*	00000000 muldf3.c
00000000 l    df *ABS*	00000000 subdf3.c
00000000 l    df *ABS*	00000000 floatunsidf.c
00000000 l    df *ABS*	00000000 libgcc2.c
00000000 l    df *ABS*	00000000 libgcc2.c
00000000 l    df *ABS*	00000000 printf.c
00000000 l    df *ABS*	00000000 puts.c
00000000 l    df *ABS*	00000000 scanf.c
00000000 l    df *ABS*	00000000 strlen.c
00000000 l    df *ABS*	00000000 vfprintf.c
0081f68a l     O .rodata	00000010 zeroes.4404
00809c50 l     F .text	000000bc __sbprintf
0081f69a l     O .rodata	00000010 blanks.4403
00000000 l    df *ABS*	00000000 vfscanf.c
0081f6b2 l     O .rodata	00000022 basefix.4359
00000000 l    df *ABS*	00000000 wsetup.c
00000000 l    df *ABS*	00000000 ctype_.c
0081f7d5 l     O .rodata	00000180 _ctype_b
00000000 l    df *ABS*	00000000 dtoa.c
0080b6ec l     F .text	00000200 quorem
00000000 l    df *ABS*	00000000 fflush.c
00000000 l    df *ABS*	00000000 findfp.c
0080d21c l     F .text	00000008 __fp_unlock
0080d230 l     F .text	0000019c __sinit.part.1
0080d3cc l     F .text	00000008 __fp_lock
00000000 l    df *ABS*	00000000 fread.c
00000000 l    df *ABS*	00000000 mallocr.c
00000000 l    df *ABS*	00000000 fvwrite.c
00000000 l    df *ABS*	00000000 fwalk.c
00000000 l    df *ABS*	00000000 impure.c
0081fca0 l     O .rwdata	00000424 impure_data
00000000 l    df *ABS*	00000000 iswspace.c
00000000 l    df *ABS*	00000000 locale.c
008200e4 l     O .rwdata	00000020 lc_ctype_charset
008200c4 l     O .rwdata	00000020 lc_message_charset
00820104 l     O .rwdata	00000038 lconv
00000000 l    df *ABS*	00000000 makebuf.c
00000000 l    df *ABS*	00000000 mallocr.c
00000000 l    df *ABS*	00000000 mbrtowc.c
00000000 l    df *ABS*	00000000 mbtowc_r.c
00000000 l    df *ABS*	00000000 memchr.c
00000000 l    df *ABS*	00000000 memcpy.c
00000000 l    df *ABS*	00000000 memmove.c
00000000 l    df *ABS*	00000000 memset.c
00000000 l    df *ABS*	00000000 mprec.c
0081f978 l     O .rodata	0000000c p05.2768
00000000 l    df *ABS*	00000000 mallocr.c
00000000 l    df *ABS*	00000000 refill.c
0081099c l     F .text	0000001c lflush
00000000 l    df *ABS*	00000000 s_fpclassify.c
00000000 l    df *ABS*	00000000 sbrkr.c
00000000 l    df *ABS*	00000000 sccl.c
00000000 l    df *ABS*	00000000 sf_nan.c
00000000 l    df *ABS*	00000000 sprintf.c
00000000 l    df *ABS*	00000000 stdio.c
00000000 l    df *ABS*	00000000 strcmp.c
00000000 l    df *ABS*	00000000 strtod.c
00811008 l     F .text	00000064 sulp
0081fac0 l     O .rodata	00000014 fpi.2737
0081fad4 l     O .rodata	00000028 tinytens
0081faac l     O .rodata	00000014 fpinan.2773
00000000 l    df *ABS*	00000000 strtol.c
00000000 l    df *ABS*	00000000 strtoll_r.c
00000000 l    df *ABS*	00000000 strtoul.c
00000000 l    df *ABS*	00000000 strtoull_r.c
00000000 l    df *ABS*	00000000 vfprintf.c
0081fafc l     O .rodata	00000010 zeroes.4389
0081fb0c l     O .rodata	00000010 blanks.4388
00000000 l    df *ABS*	00000000 ungetc.c
00000000 l    df *ABS*	00000000 vfprintf.c
008156b4 l     F .text	000000fc __sprint_r.part.0
0081fb2c l     O .rodata	00000010 blanks.4348
0081fb1c l     O .rodata	00000010 zeroes.4349
00816c40 l     F .text	000000bc __sbprintf
00000000 l    df *ABS*	00000000 writer.c
00000000 l    df *ABS*	00000000 closer.c
00000000 l    df *ABS*	00000000 mallocr.c
00000000 l    df *ABS*	00000000 fclose.c
00000000 l    df *ABS*	00000000 fputwc.c
00000000 l    df *ABS*	00000000 fstatr.c
00000000 l    df *ABS*	00000000 gdtoa-gethex.c
008171dc l     F .text	00000100 rshift
00000000 l    df *ABS*	00000000 gdtoa-hexnan.c
00000000 l    df *ABS*	00000000 int_errno.c
00000000 l    df *ABS*	00000000 isattyr.c
00000000 l    df *ABS*	00000000 lseekr.c
00000000 l    df *ABS*	00000000 readr.c
00000000 l    df *ABS*	00000000 strncmp.c
00000000 l    df *ABS*	00000000 vfprintf.c
0081fc4c l     O .rodata	00000010 blanks.4332
0081fc3c l     O .rodata	00000010 zeroes.4333
00000000 l    df *ABS*	00000000 wbuf.c
00000000 l    df *ABS*	00000000 wcrtomb.c
00000000 l    df *ABS*	00000000 wctomb_r.c
00000000 l    df *ABS*	00000000 libgcc2.c
00000000 l    df *ABS*	00000000 libgcc2.c
00000000 l    df *ABS*	00000000 libgcc2.c
00000000 l    df *ABS*	00000000 libgcc2.c
00000000 l    df *ABS*	00000000 lib2-divmod.c
00000000 l    df *ABS*	00000000 eqsf2.c
00000000 l    df *ABS*	00000000 gesf2.c
00000000 l    df *ABS*	00000000 lesf2.c
00000000 l    df *ABS*	00000000 divdf3.c
00000000 l    df *ABS*	00000000 eqdf2.c
00000000 l    df *ABS*	00000000 fixdfsi.c
00000000 l    df *ABS*	00000000 floatsidf.c
00000000 l    df *ABS*	00000000 truncdfsf2.c
00000000 l    df *ABS*	00000000 alt_alarm_start.c
00000000 l    df *ABS*	00000000 alt_close.c
0081b36c l     F .text	0000003c alt_get_errno
00000000 l    df *ABS*	00000000 alt_dev.c
0081b478 l     F .text	0000002c alt_dev_null_write
00000000 l    df *ABS*	00000000 alt_errno.c
00000000 l    df *ABS*	00000000 alt_fstat.c
0081b4a4 l     F .text	0000003c alt_get_errno
00000000 l    df *ABS*	00000000 alt_irq_register.c
00000000 l    df *ABS*	00000000 alt_irq_vars.c
00000000 l    df *ABS*	00000000 alt_isatty.c
0081b710 l     F .text	0000003c alt_get_errno
00000000 l    df *ABS*	00000000 alt_load.c
0081b7f0 l     F .text	00000068 alt_load_section
00000000 l    df *ABS*	00000000 alt_lseek.c
0081b8dc l     F .text	0000003c alt_get_errno
00000000 l    df *ABS*	00000000 alt_main.c
00000000 l    df *ABS*	00000000 alt_malloc_lock.c
00000000 l    df *ABS*	00000000 alt_read.c
0081bab0 l     F .text	0000003c alt_get_errno
00000000 l    df *ABS*	00000000 alt_release_fd.c
00000000 l    df *ABS*	00000000 alt_sbrk.c
0082196c l     O .rwdata	00000004 heap_end
00000000 l    df *ABS*	00000000 alt_tick.c
00000000 l    df *ABS*	00000000 alt_write.c
0081bea0 l     F .text	0000003c alt_get_errno
00000000 l    df *ABS*	00000000 alt_sys_init.c
0081bfd4 l     F .text	00000034 alt_dev_reg
008206ec l     O .rwdata	00001060 jtag_uart
0082174c l     O .rwdata	00000120 lcd
0082186c l     O .rwdata	000000c4 uart
00000000 l    df *ABS*	00000000 altera_avalon_jtag_uart_fd.c
00000000 l    df *ABS*	00000000 altera_avalon_jtag_uart_init.c
0081c2fc l     F .text	0000020c altera_avalon_jtag_uart_irq
0081c508 l     F .text	000000a0 altera_avalon_jtag_uart_timeout
00000000 l    df *ABS*	00000000 altera_avalon_jtag_uart_ioctl.c
00000000 l    df *ABS*	00000000 altera_avalon_jtag_uart_read.c
00000000 l    df *ABS*	00000000 altera_avalon_jtag_uart_write.c
00000000 l    df *ABS*	00000000 altera_avalon_lcd_16207.c
00821978 l     O .rwdata	00000004 colstart
0081cb40 l     F .text	000000b8 lcd_write_command
0081cbf8 l     F .text	000000d8 lcd_write_data
0081ccd0 l     F .text	000000d0 lcd_clear_screen
0081cda0 l     F .text	000001ec lcd_repaint_screen
0081cf8c l     F .text	000000cc lcd_scroll_up
0081d058 l     F .text	000002ac lcd_handle_escape
0081d7dc l     F .text	000000ac alt_lcd_16207_timeout
00000000 l    df *ABS*	00000000 altera_avalon_lcd_16207_fd.c
00000000 l    df *ABS*	00000000 altera_avalon_timer_sc.c
0081da1c l     F .text	00000078 alt_avalon_timer_sc_irq
00000000 l    df *ABS*	00000000 altera_avalon_uart_fd.c
00000000 l    df *ABS*	00000000 altera_avalon_uart_init.c
0081dccc l     F .text	0000009c altera_avalon_uart_irq
0081dd68 l     F .text	000000e4 altera_avalon_uart_rxirq
0081de4c l     F .text	00000148 altera_avalon_uart_txirq
00000000 l    df *ABS*	00000000 altera_avalon_uart_read.c
0081dfe8 l     F .text	0000003c alt_get_errno
00000000 l    df *ABS*	00000000 altera_avalon_uart_write.c
0081e200 l     F .text	0000003c alt_get_errno
00000000 l    df *ABS*	00000000 alt_dcache_flush_all.c
00000000 l    df *ABS*	00000000 alt_dev_llist_insert.c
0081e430 l     F .text	0000003c alt_get_errno
00000000 l    df *ABS*	00000000 alt_do_ctors.c
00000000 l    df *ABS*	00000000 alt_do_dtors.c
00000000 l    df *ABS*	00000000 alt_icache_flush_all.c
00000000 l    df *ABS*	00000000 alt_iic.c
00000000 l    df *ABS*	00000000 alt_iic_isr_register.c
00000000 l    df *ABS*	00000000 alt_io_redirect.c
0081e8a4 l     F .text	000000c4 alt_open_fd
00000000 l    df *ABS*	00000000 alt_open.c
0081e9e4 l     F .text	0000003c alt_get_errno
0081ea20 l     F .text	000000c4 alt_file_locked
00000000 l    df *ABS*	00000000 alt_usleep.c
00000000 l    df *ABS*	00000000 altera_nios2_gen2_irq.c
00000000 l    df *ABS*	00000000 alt_busy_sleep.c
00000000 l    df *ABS*	00000000 alt_find_dev.c
00000000 l    df *ABS*	00000000 alt_find_file.c
00000000 l    df *ABS*	00000000 alt_get_fd.c
00000000 l    df *ABS*	00000000 alt_icache_flush.c
00000000 l    df *ABS*	00000000 atexit.c
00000000 l    df *ABS*	00000000 exit.c
00000000 l    df *ABS*	00000000 memcmp.c
00000000 l    df *ABS*	00000000 __atexit.c
00000000 l    df *ABS*	00000000 __call_atexit.c
00000000 l    df *ABS*	00000000 alt_exit.c
0082368c g     O .bss	00000004 alt_instruction_exception_handler
008102c0 g     F .text	00000074 _mprec_log10
008103ac g     F .text	0000008c __any_on
00817d68 g     F .text	00000054 _isatty_r
0081f984 g     O .rodata	00000028 __mprec_tinytens
0081b9ec g     F .text	0000007c alt_main
00807864 g     F .text	000000c0 _puts_r
008236b8 g     O .bss	00000100 alt_irq
00817dbc g     F .text	00000060 _lseek_r
0082197c g       *ABS*	00000000 __flash_rwdata_start
0081aeb4 g     F .text	00000088 .hidden __eqdf2
008237b8 g       *ABS*	00000000 __alt_heap_start
00807828 g     F .text	0000003c printf
008194b0 g     F .text	0000009c _wcrtomb_r
00810ec8 g     F .text	0000005c __sseek
0080d56c g     F .text	00000010 __sinit
00819358 g     F .text	00000140 __swbuf_r
0080e2c4 g     F .text	0000007c _setlocale_r
0080d3d4 g     F .text	00000068 __sfmoreglue
0081569c g     F .text	00000018 ungetc
0081ba8c g     F .text	00000024 __malloc_unlock
0081106c g     F .text	000015f8 _strtod_r
0080f1b8 g     F .text	0000015c memmove
0080d554 g     F .text	00000018 _cleanup
0080f43c g     F .text	000000a8 _Balloc
00806508 g     F .text	000000dc .hidden __gtdf2
0081ec68 g     F .text	00000024 altera_nios2_gen2_irq_init
00800000 g     F .entry	0000001c __reset
00800020 g       *ABS*	00000000 __flash_exceptions_start
00817180 g     F .text	0000005c _fstat_r
00823670 g     O .bss	00000004 errno
0080b530 g     F .text	0000001c __svfscanf
00810e44 g     F .text	00000008 __seofread
0081811c g     F .text	0000123c ___svfiprintf_internal_r
0082367c g     O .bss	00000004 alt_argv
00829930 g       *ABS*	00000000 _gp
0081ec38 g     F .text	00000030 usleep
008057d4 g     F .text	0000019c reset
0082056c g     O .rwdata	00000180 alt_fd_list
0081ede4 g     F .text	00000090 alt_find_dev
0080f070 g     F .text	00000148 memcpy
00817b0c g     F .text	0000025c __hexnan
0080d224 g     F .text	0000000c _cleanup_r
0081afbc g     F .text	000000dc .hidden __floatsidf
0081e968 g     F .text	0000007c alt_io_redirect
008065e4 g     F .text	000000f4 .hidden __ltdf2
0081f4e0 g       *ABS*	00000000 __DTOR_END__
00807924 g     F .text	00000014 puts
0081f0b0 g     F .text	0000009c alt_exception_cause_generated_bad_addr
0080ee14 g     F .text	000000d8 mbrtowc
00810b8c g     F .text	00000074 __fpclassifyd
0080b54c g     F .text	0000004c _vfscanf_r
0081021c g     F .text	000000a4 __ratio
00816c24 g     F .text	0000001c __vfiprintf_internal
0081c700 g     F .text	0000021c altera_avalon_jtag_uart_read
008077f8 g     F .text	00000030 _printf_r
0081a314 g     F .text	00000064 .hidden __udivsi3
0081b74c g     F .text	000000a4 isatty
0080e294 g     F .text	00000030 iswspace
0081f9d4 g     O .rodata	000000c8 __mprec_tens
0080e340 g     F .text	0000000c __locale_charset
0081a504 g     F .text	000000c8 .hidden __lesf2
008196f8 g     F .text	00000074 .hidden __fixunsdfsi
0081f020 g     F .text	00000090 alt_icache_flush
0082366c g     O .bss	00000004 __malloc_top_pad
00812f20 g     F .text	0000001c strtoul
0082193c g     O .rwdata	00000004 __mb_cur_max
0080e370 g     F .text	0000000c _localeconv_r
00812f3c g     F .text	00000320 _strtoull_r
0080f848 g     F .text	0000003c __i2b
0080dc50 g     F .text	000004bc __sfvwrite_r
00810c00 g     F .text	00000054 _sbrk_r
00817e1c g     F .text	00000060 _read_r
00821960 g     O .rwdata	00000004 alt_max_fd
00816e74 g     F .text	000000f0 _fclose_r
0080d1ec g     F .text	00000030 fflush
00823668 g     O .bss	00000004 __malloc_max_sbrked_mem
0081b590 g     F .text	00000180 alt_irq_register
00805c5c g     F .text	000008ac .hidden __adddf3
0081a3d0 g     F .text	00000078 .hidden __nesf2
0080ffc4 g     F .text	0000010c __b2d
00819ce4 g     F .text	00000538 .hidden __umoddi3
0081b918 g     F .text	000000d4 lseek
00821934 g     O .rwdata	00000004 _global_impure_ptr
00810438 g     F .text	00000564 _realloc_r
008237b8 g       *ABS*	00000000 __bss_end
0081e7b4 g     F .text	000000f0 alt_iic_isr_register
0081bd98 g     F .text	00000108 alt_tick
0081fb3c g     O .rodata	00000100 __hexdig
0081976c g     F .text	00000578 .hidden __udivdi3
008170dc g     F .text	00000024 _fputwc_r
0081f9ac g     O .rodata	00000028 __mprec_bigtens
0080f62c g     F .text	00000104 __s2b
008076ec g     F .text	000000a8 .hidden __floatunsidf
0080fd04 g     F .text	00000060 __mcmp
0081dc20 g     F .text	000000ac altera_avalon_uart_init
0080d58c g     F .text	00000018 __fp_lock_all
0081e768 g     F .text	0000004c alt_ic_irq_enabled
0081bcfc g     F .text	0000009c alt_alarm_stop
008129b4 g     F .text	0000001c strtol
00823674 g     O .bss	00000004 alt_irq_active
01008000 g       *ABS*	00000000 __alt_mem_onchip_mem
008000fc g     F .exceptions	000000d4 alt_irq_handler
00820544 g     O .rwdata	00000028 alt_dev_null
0081e3e8 g     F .text	00000048 alt_dcache_flush_all
0080f730 g     F .text	00000068 __hi0bits
0081af3c g     F .text	00000080 .hidden __fixdfsi
00812664 g     F .text	00000018 strtod
0082197c g       *ABS*	00000000 __ram_rwdata_end
00821958 g     O .rwdata	00000008 alt_dev_list
0081bedc g     F .text	000000f8 write
0081a448 g     F .text	000000bc .hidden __gtsf2
0081fca0 g       *ABS*	00000000 __ram_rodata_end
0081b4e0 g     F .text	000000b0 fstat
008065e4 g     F .text	000000f4 .hidden __ledf2
0080fa7c g     F .text	00000140 __pow5mult
008157c8 g     F .text	0000145c ___vfiprintf_internal_r
00823660 g     O .bss	00000004 __nlocale_changed
0081a378 g     F .text	00000058 .hidden __umodsi3
00807974 g     F .text	00000030 _scanf_r
008237b8 g       *ABS*	00000000 end
0081d304 g     F .text	000004d8 altera_avalon_lcd_16207_write
0081e23c g     F .text	000001ac altera_avalon_uart_write
0081c23c g     F .text	000000c0 altera_avalon_jtag_uart_init
008001d0 g     F .exceptions	00000074 alt_instruction_exception_entry
0081f4e0 g       *ABS*	00000000 __CTOR_LIST__
01000000 g       *ABS*	00000000 __alt_stack_pointer
0081da94 g     F .text	0000007c alt_avalon_timer_sc_init
0081db70 g     F .text	00000060 altera_avalon_uart_write_fd
00807794 g     F .text	00000064 .hidden __clzsi2
0081dbd0 g     F .text	00000050 altera_avalon_uart_close_fd
0081c91c g     F .text	00000224 altera_avalon_jtag_uart_write
0080d57c g     F .text	00000004 __sfp_lock_acquire
0080ef8c g     F .text	000000e4 memchr
00807a3c g     F .text	000021f8 ___vfprintf_internal_r
00810d2c g     F .text	00000058 _sprintf_r
0080d940 g     F .text	00000310 _free_r
0080e34c g     F .text	00000010 __locale_mb_cur_max
0081f32c g     F .text	00000180 __call_exitprocs
0082365c g     O .bss	00000004 __mlocale_changed
00821940 g     O .rwdata	00000004 __malloc_sbrk_base
00800244 g     F .text	0000004c _start
00823684 g     O .bss	00000004 _alt_tick_rate
008129d0 g     F .text	00000304 _strtoll_r
00805bec g     F .text	00000070 .hidden __floatundidf
0080fbbc g     F .text	00000148 __lshift
00823688 g     O .bss	00000004 _alt_nticks
0081baec g     F .text	000000fc read
0081c040 g     F .text	00000098 alt_sys_init
00817f4c g     F .text	000001d0 __ssprint_r
0081f214 g     F .text	00000118 __register_exitproc
00817e7c g     F .text	000000d0 strncmp
0080f884 g     F .text	000001f8 __multiply
0081c5a8 g     F .text	00000068 altera_avalon_jtag_uart_close
0081fca0 g       *ABS*	00000000 __ram_rwdata_start
0081f4e0 g       *ABS*	00000000 __ram_rodata_start
00823690 g     O .bss	00000028 __malloc_current_mallinfo
0081a3d0 g     F .text	00000078 .hidden __eqsf2
008100d0 g     F .text	0000014c __d2b
0081c0d8 g     F .text	00000060 altera_avalon_jtag_uart_read_fd
00812cd4 g     F .text	0000024c _strtoul_r
0081ef7c g     F .text	000000a4 alt_get_fd
0081ec8c g     F .text	00000158 alt_busy_sleep
00816d5c g     F .text	00000054 _close_r
0081f198 g     F .text	0000007c memcmp
0081c198 g     F .text	00000050 altera_avalon_jtag_uart_close_fd
008237b8 g       *ABS*	00000000 __alt_stack_base
0081c1e8 g     F .text	00000054 altera_avalon_jtag_uart_ioctl_fd
0080b598 g     F .text	00000154 __swsetup_r
00805970 g     F .text	0000027c tick
0081a5cc g     F .text	000008e8 .hidden __divdf3
0080d43c g     F .text	00000118 __sfp
00810334 g     F .text	00000078 __copybits
0082013c g     O .rwdata	00000408 __malloc_av_
0080d588 g     F .text	00000004 __sinit_lock_release
008066d8 g     F .text	00000718 .hidden __muldf3
00810df0 g     F .text	00000054 __sread
0080d7e8 g     F .text	00000034 fread
0081ee74 g     F .text	00000108 alt_find_file
0081e46c g     F .text	000000a4 alt_dev_llist_insert
0081ba68 g     F .text	00000024 __malloc_lock
0081bc4c g     F .text	000000b0 sbrk
0081325c g     F .text	000021d8 ___svfprintf_internal_r
0080d190 g     F .text	0000005c _fflush_r
00816db0 g     F .text	000000c4 _calloc_r
00823658 g       *ABS*	00000000 __bss_start
0080f314 g     F .text	00000128 memset
00800324 g     F .text	000001a0 main
00823680 g     O .bss	00000004 alt_envp
00823664 g     O .bss	00000004 __malloc_max_total_mem
0081c138 g     F .text	00000060 altera_avalon_jtag_uart_write_fd
00819498 g     F .text	00000018 __swbuf
0081a504 g     F .text	000000c8 .hidden __ltsf2
0080d5bc g     F .text	0000022c _fread_r
0081d888 g     F .text	00000134 altera_avalon_lcd_16207_init
00810f24 g     F .text	00000008 __sclose
01000000 g       *ABS*	00000000 __alt_heap_limit
00816f64 g     F .text	00000014 fclose
0081277c g     F .text	00000238 _strtol_r
0081b098 g     F .text	000001a8 .hidden __truncdfsf2
0080b8ec g     F .text	00001688 _dtoa_r
0080e55c g     F .text	0000080c _malloc_r
0081960c g     F .text	00000030 __ascii_wctomb
00821964 g     O .rwdata	00000004 alt_errno
00815434 g     F .text	000000d4 __submore
0080e10c g     F .text	000000c4 _fwalk
0080ef30 g     F .text	0000005c _mbtowc_r
0081a21c g     F .text	00000084 .hidden __divsi3
0080d81c g     F .text	00000124 _malloc_trim_r
0081f4e0 g       *ABS*	00000000 __CTOR_END__
00810f2c g     F .text	000000dc strcmp
0081f4e0 g       *ABS*	00000000 __flash_rodata_start
0081f4e0 g       *ABS*	00000000 __DTOR_LIST__
0081aeb4 g     F .text	00000088 .hidden __nedf2
0081c008 g     F .text	00000038 alt_irq_init
0081bbe8 g     F .text	00000064 alt_release_fd
00810d84 g     F .text	0000006c sprintf
0081f541 g     O .rodata	00000100 .hidden __clz_tab
00823658 g     O .bss	00000004 _PathLocale
0081267c g     F .text	00000100 strtof
0081f14c g     F .text	00000014 atexit
0081a448 g     F .text	000000bc .hidden __gesf2
00816cfc g     F .text	00000060 _write_r
0080e37c g     F .text	00000018 setlocale
00807938 g     F .text	0000003c scanf
00810d24 g     F .text	00000008 nanf
00821938 g     O .rwdata	00000004 _impure_ptr
00823678 g     O .bss	00000004 alt_argc
0080cf74 g     F .text	0000021c __sflush_r
0080ed68 g     F .text	000000ac _mbrtowc_r
0081e570 g     F .text	00000060 _do_dtors
0080e368 g     F .text	00000008 __locale_cjk_lang
008109b8 g     F .text	000001d4 __srefill_r
00800020 g       .exceptions	00000000 alt_irq_entry
0080eeec g     F .text	00000044 __ascii_mbtowc
0080ff60 g     F .text	00000064 __ulp
0080d5a4 g     F .text	00000018 __fp_unlock_all
0081d9bc g     F .text	00000060 altera_avalon_lcd_16207_write_fd
00821950 g     O .rwdata	00000008 alt_fs_list
00800020 g       *ABS*	00000000 __ram_exceptions_start
0080e394 g     F .text	0000000c localeconv
008002d0 g     F .text	00000054 buttonISR
00800290 g     F .text	00000040 timerISR
0081e604 g     F .text	00000050 alt_ic_isr_register
0082197c g       *ABS*	00000000 _edata
0081db10 g     F .text	00000060 altera_avalon_uart_read_fd
008237b8 g       *ABS*	00000000 _end
00816f78 g     F .text	00000164 __fputwc
00800244 g       *ABS*	00000000 __ram_exceptions_end
0080b4c8 g     F .text	00000068 vfscanf
0081c610 g     F .text	000000f0 altera_avalon_jtag_uart_ioctl
0081e6dc g     F .text	0000008c alt_ic_irq_disable
00810e4c g     F .text	0000007c __swrite
00821944 g     O .rwdata	00000004 __malloc_trim_threshold
0080e35c g     F .text	0000000c __locale_msgcharset
0081f160 g     F .text	00000038 exit
0080e1d0 g     F .text	000000c4 _fwalk_reent
0080fd64 g     F .text	000001fc __mdiff
0081a2a0 g     F .text	00000074 .hidden __modsi3
008004c4 g     F .text	00005310 logic
00821930 g     O .rwdata	00000004 __ctype_ptr__
01000000 g       *ABS*	00000000 __alt_data_end
00800020 g     F .exceptions	00000000 alt_exception
0080d580 g     F .text	00000004 __sfp_lock_release
00800000 g       *ABS*	00000000 __alt_mem_sdram
00810c54 g     F .text	000000d0 __sccl
0081f6d4 g     O .rodata	00000101 _ctype_
00821948 g     O .rwdata	00000004 __mbtowc
0081df94 g     F .text	00000054 altera_avalon_uart_close
0081f4ac g     F .text	00000034 _exit
0081b240 g     F .text	0000012c alt_alarm_start
00819698 g     F .text	00000060 .hidden __muldi3
0080e3a0 g     F .text	000001bc __smakebuf_r
008079a4 g     F .text	00000098 strlen
0081eae4 g     F .text	00000154 open
00806508 g     F .text	000000dc .hidden __gedf2
008172dc g     F .text	00000830 __gethex
0082194c g     O .rwdata	00000004 __wctomb
008157b0 g     F .text	00000018 __sprint_r
0081e5d0 g     F .text	00000034 alt_icache_flush_all
00821968 g     O .rwdata	00000004 alt_priority_mask
0081e654 g     F .text	00000088 alt_ic_irq_enable
00809c34 g     F .text	0000001c __vfprintf_internal
0081e024 g     F .text	000001dc altera_avalon_uart_read
0081963c g     F .text	0000005c _wctomb_r
00806df0 g     F .text	000008fc .hidden __subdf3
0080f798 g     F .text	000000b0 __lo0bits
00809d0c g     F .text	000017bc __svfscanf_r
00821970 g     O .rwdata	00000008 alt_alarm_list
00815508 g     F .text	00000194 _ungetc_r
0081e510 g     F .text	00000060 _do_ctors
0081954c g     F .text	000000c0 wcrtomb
0081b3a8 g     F .text	000000d0 close
0081b858 g     F .text	00000084 alt_load
00817100 g     F .text	00000080 fputwc
0080d584 g     F .text	00000004 __sinit_lock_acquire
0080f50c g     F .text	00000120 __multadd
0080f4e4 g     F .text	00000028 _Bfree



Disassembly of section .entry:

00800000 <__reset>:
#if NIOS2_ICACHE_SIZE > 0 && defined(ALT_ALLOW_CODE_AT_RESET) && (!defined(ALT_SIM_OPTIMIZE) || defined(NIOS2_ECC_PRESENT))
    /* Assume the instruction cache size is always a power of two. */
#if NIOS2_ICACHE_SIZE > 0x8000
    movhi r2, %hi(NIOS2_ICACHE_SIZE)
#else
    movui r2, NIOS2_ICACHE_SIZE
  800000:	00840014 	movui	r2,4096
#endif

0:
    initi r2
  800004:	1001483a 	initi	r2
    addi r2, r2, -NIOS2_ICACHE_LINE_SIZE
  800008:	10bff804 	addi	r2,r2,-32
    bgt r2, zero, 0b
  80000c:	00bffd16 	blt	zero,r2,800004 <__alt_mem_onchip_mem+0xff7f8004>
 * Jump to the _start entry point in the .text section if reset code
 * is allowed or if optimizing for RTL simulation.
 */
#if defined(ALT_ALLOW_CODE_AT_RESET) || defined(ALT_SIM_OPTIMIZE)
    /* Jump to the _start entry point in the .text section. */
    movhi r1, %hi(_start)
  800010:	00402034 	movhi	at,128
    ori r1, r1, %lo(_start)
  800014:	08409114 	ori	at,at,580
    jmp r1
  800018:	0800683a 	jmp	at
  80001c:	00000000 	call	0 <__reset-0x800000>

Disassembly of section .exceptions:

00800020 <alt_exception>:

#else /* ALT_EXCEPTION_STACK disabled */
        /* 
         * Reserve space on normal stack for registers about to be pushed.
         */
        addi  sp, sp, -76
  800020:	deffed04 	addi	sp,sp,-76
         * documentation for details).
         *
         * Leave a gap in the stack frame at 4(sp) for the muldiv handler to
         * store zero into.
         */
        stw   ra,  0(sp)
  800024:	dfc00015 	stw	ra,0(sp)
        stw   r1,   8(sp)
  800028:	d8400215 	stw	at,8(sp)
        stw   r2,  12(sp)
  80002c:	d8800315 	stw	r2,12(sp)
        stw   r3,  16(sp)
  800030:	d8c00415 	stw	r3,16(sp)
        stw   r4,  20(sp)
  800034:	d9000515 	stw	r4,20(sp)
        stw   r5,  24(sp)
  800038:	d9400615 	stw	r5,24(sp)
        stw   r6,  28(sp)
  80003c:	d9800715 	stw	r6,28(sp)
        stw   r7,  32(sp)
  800040:	d9c00815 	stw	r7,32(sp)
        rdctl r5, estatus   /* Read early to avoid usage stall */
  800044:	000b307a 	rdctl	r5,estatus
        stw   r8,  36(sp)
  800048:	da000915 	stw	r8,36(sp)
        stw   r9,  40(sp)
  80004c:	da400a15 	stw	r9,40(sp)
        stw   r10, 44(sp)
  800050:	da800b15 	stw	r10,44(sp)
        stw   r11, 48(sp)
  800054:	dac00c15 	stw	r11,48(sp)
        stw   r12, 52(sp)
  800058:	db000d15 	stw	r12,52(sp)
        stw   r13, 56(sp)
  80005c:	db400e15 	stw	r13,56(sp)
        stw   r14, 60(sp)
  800060:	db800f15 	stw	r14,60(sp)
        stw   r15, 64(sp)
  800064:	dbc01015 	stw	r15,64(sp)
        /*
         * ea-4 contains the address of the instruction being executed
         * when the exception occured. For interrupt exceptions, we will
         * will be re-issue the isntruction. Store it in 72(sp)
         */
        stw   r5,  68(sp)  /* estatus */
  800068:	d9401115 	stw	r5,68(sp)
        addi  r15, ea, -4  /* instruction that caused exception */
  80006c:	ebffff04 	addi	r15,ea,-4
        stw   r15,  72(sp)
  800070:	dbc01215 	stw	r15,72(sp)
#else
        /*
         * Test to see if the exception was a software exception or caused 
         * by an external interrupt, and vector accordingly.
         */
        rdctl r4, ipending
  800074:	0009313a 	rdctl	r4,ipending
        andi  r2, r5, 1
  800078:	2880004c 	andi	r2,r5,1
        beq   r2, zero, .Lnot_irq
  80007c:	10000326 	beq	r2,zero,80008c <alt_exception+0x6c>
        beq   r4, zero, .Lnot_irq
  800080:	20000226 	beq	r4,zero,80008c <alt_exception+0x6c>
        /*
         * Now that all necessary registers have been preserved, call 
         * alt_irq_handler() to process the interrupts.
         */

        call alt_irq_handler
  800084:	08000fc0 	call	8000fc <alt_irq_handler>

        .section .exceptions.irqreturn, "xa"

        br    .Lexception_exit
  800088:	00000706 	br	8000a8 <alt_exception+0x88>
         * upon completion, so we write ea (address of instruction *after*
         * the one where the exception occured) into 72(sp). The actual
         * instruction that caused the exception is written in r2, which these
         * handlers will utilize.
         */
        stw ea, 72(sp) /* EA is PC+4 so will skip over instruction causing exception */
  80008c:	df401215 	stw	ea,72(sp)
.Lunknown_16bit:
        addi.n r4, r4, 2 /* Need PC+2 to skip over instruction causing exception */
        stw r4, 72(sp)

#else /* CDX is not Enabled and all instructions are 32bits */
        ldw r2, -4(ea) /* Instruction value that caused exception */
  800090:	e8bfff17 	ldw	r2,-4(ea)
         * debugger is present) or go into an infinite loop since the
         * handling behavior is undefined; in that case we will not return here.
         */

        /* Load exception-causing address as first argument (r4) */
        addi   r4, ea, -4
  800094:	e93fff04 	addi	r4,ea,-4

        /* Call the instruction-exception entry */
        call   alt_instruction_exception_entry
  800098:	08001d00 	call	8001d0 <alt_instruction_exception_entry>
         * instruction
         *
         * Return code was 0: Skip. The instruction after the exception is
         * already stored in 72(sp).
         */
        bne   r2, r0, .Lexception_exit
  80009c:	1000021e 	bne	r2,zero,8000a8 <alt_exception+0x88>

        /*
         * Otherwise, modify 72(sp) to re-issue the instruction that caused the
         * exception.
         */
        addi  r15, ea, -4  /* instruction that caused exception */
  8000a0:	ebffff04 	addi	r15,ea,-4
        stw   r15,  72(sp)
  8000a4:	dbc01215 	stw	r15,72(sp)
        /* 
         * Restore the saved registers, so that all general purpose registers 
         * have been restored to their state at the time the interrupt occured.
         */

        ldw   r5,  68(sp)
  8000a8:	d9401117 	ldw	r5,68(sp)
        ldw   ea,  72(sp)  /* This becomes the PC once eret is executed */
  8000ac:	df401217 	ldw	ea,72(sp)
        ldw   ra,   0(sp)
  8000b0:	dfc00017 	ldw	ra,0(sp)

        wrctl estatus, r5
  8000b4:	2801707a 	wrctl	estatus,r5

        ldw   r1,   8(sp)
  8000b8:	d8400217 	ldw	at,8(sp)
        ldw   r2,  12(sp)
  8000bc:	d8800317 	ldw	r2,12(sp)
        ldw   r3,  16(sp)
  8000c0:	d8c00417 	ldw	r3,16(sp)
        ldw   r4,  20(sp)
  8000c4:	d9000517 	ldw	r4,20(sp)
        ldw   r5,  24(sp)
  8000c8:	d9400617 	ldw	r5,24(sp)
        ldw   r6,  28(sp)
  8000cc:	d9800717 	ldw	r6,28(sp)
        ldw   r7,  32(sp)
  8000d0:	d9c00817 	ldw	r7,32(sp)

#if defined(ALT_EXCEPTION_STACK) && defined(ALT_STACK_CHECK)
        ldw   et, %gprel(alt_exception_old_stack_limit)(gp)
#endif

        ldw   r8,  36(sp)
  8000d4:	da000917 	ldw	r8,36(sp)
        ldw   r9,  40(sp)
  8000d8:	da400a17 	ldw	r9,40(sp)
        ldw   r10, 44(sp)
  8000dc:	da800b17 	ldw	r10,44(sp)
        ldw   r11, 48(sp)
  8000e0:	dac00c17 	ldw	r11,48(sp)
        ldw   r12, 52(sp)
  8000e4:	db000d17 	ldw	r12,52(sp)
        ldw   r13, 56(sp)
  8000e8:	db400e17 	ldw	r13,56(sp)
        ldw   r14, 60(sp)
  8000ec:	db800f17 	ldw	r14,60(sp)
        ldw   r15, 64(sp)
  8000f0:	dbc01017 	ldw	r15,64(sp)
        stw   et, %gprel(alt_stack_limit_value)(gp)
        stw   zero, %gprel(alt_exception_old_stack_limit)(gp)
#endif /* ALT_STACK_CHECK */
        ldw   sp,  76(sp)
#else /* ALT_EXCEPTION_STACK disabled */
        addi  sp, sp, 76
  8000f4:	dec01304 	addi	sp,sp,76

        /*
         * Return to the interrupted instruction.
         */

        eret
  8000f8:	ef80083a 	eret

008000fc <alt_irq_handler>:
 * instruction is present if the macro ALT_CI_INTERRUPT_VECTOR defined.
 */

void alt_irq_handler (void) __attribute__ ((section (".exceptions")));
void alt_irq_handler (void)
{
  8000fc:	defff904 	addi	sp,sp,-28
  800100:	dfc00615 	stw	ra,24(sp)
  800104:	df000515 	stw	fp,20(sp)
  800108:	df000504 	addi	fp,sp,20
  
  /*
   * Notify the operating system that we are at interrupt level.
   */ 
  
  ALT_OS_INT_ENTER();
  80010c:	0001883a 	nop
#ifndef NIOS2_EIC_PRESENT
static ALT_INLINE alt_u32 ALT_ALWAYS_INLINE alt_irq_pending (void)
{
  alt_u32 active;

  NIOS2_READ_IPENDING (active);
  800110:	0005313a 	rdctl	r2,ipending
  800114:	e0bffe15 	stw	r2,-8(fp)

  return active;
  800118:	e0bffe17 	ldw	r2,-8(fp)
   * Consider the case where the high priority interupt is asserted during
   * the interrupt entry sequence for a lower priority interrupt to see why
   * this is the case.
   */

  active = alt_irq_pending ();
  80011c:	e0bffb15 	stw	r2,-20(fp)

  do
  {
    i = 0;
  800120:	e03ffd15 	stw	zero,-12(fp)
    mask = 1;
  800124:	00800044 	movi	r2,1
  800128:	e0bffc15 	stw	r2,-16(fp)
     * called to clear the interrupt condition.
     */

    do
    {
      if (active & mask)
  80012c:	e0fffb17 	ldw	r3,-20(fp)
  800130:	e0bffc17 	ldw	r2,-16(fp)
  800134:	1884703a 	and	r2,r3,r2
  800138:	10001426 	beq	r2,zero,80018c <alt_irq_handler+0x90>
      { 
#ifdef ALT_ENHANCED_INTERRUPT_API_PRESENT
        alt_irq[i].handler(alt_irq[i].context); 
  80013c:	008020b4 	movhi	r2,130
  800140:	108dae04 	addi	r2,r2,14008
  800144:	e0fffd17 	ldw	r3,-12(fp)
  800148:	180690fa 	slli	r3,r3,3
  80014c:	10c5883a 	add	r2,r2,r3
  800150:	10c00017 	ldw	r3,0(r2)
  800154:	008020b4 	movhi	r2,130
  800158:	108dae04 	addi	r2,r2,14008
  80015c:	e13ffd17 	ldw	r4,-12(fp)
  800160:	200890fa 	slli	r4,r4,3
  800164:	1105883a 	add	r2,r2,r4
  800168:	10800104 	addi	r2,r2,4
  80016c:	10800017 	ldw	r2,0(r2)
  800170:	1009883a 	mov	r4,r2
  800174:	183ee83a 	callr	r3
#else
        alt_irq[i].handler(alt_irq[i].context, i); 
#endif
        break;
  800178:	0001883a 	nop
#ifndef NIOS2_EIC_PRESENT
static ALT_INLINE alt_u32 ALT_ALWAYS_INLINE alt_irq_pending (void)
{
  alt_u32 active;

  NIOS2_READ_IPENDING (active);
  80017c:	0005313a 	rdctl	r2,ipending
  800180:	e0bfff15 	stw	r2,-4(fp)

  return active;
  800184:	e0bfff17 	ldw	r2,-4(fp)
  800188:	00000706 	br	8001a8 <alt_irq_handler+0xac>
      }
      mask <<= 1;
  80018c:	e0bffc17 	ldw	r2,-16(fp)
  800190:	1085883a 	add	r2,r2,r2
  800194:	e0bffc15 	stw	r2,-16(fp)
      i++;
  800198:	e0bffd17 	ldw	r2,-12(fp)
  80019c:	10800044 	addi	r2,r2,1
  8001a0:	e0bffd15 	stw	r2,-12(fp)

    } while (1);
  8001a4:	003fe106 	br	80012c <__alt_mem_onchip_mem+0xff7f812c>

    active = alt_irq_pending ();
  8001a8:	e0bffb15 	stw	r2,-20(fp)
    
  } while (active);
  8001ac:	e0bffb17 	ldw	r2,-20(fp)
  8001b0:	103fdb1e 	bne	r2,zero,800120 <__alt_mem_onchip_mem+0xff7f8120>

  /*
   * Notify the operating system that interrupt processing is complete.
   */ 

  ALT_OS_INT_EXIT();
  8001b4:	0001883a 	nop
}
  8001b8:	0001883a 	nop
  8001bc:	e037883a 	mov	sp,fp
  8001c0:	dfc00117 	ldw	ra,4(sp)
  8001c4:	df000017 	ldw	fp,0(sp)
  8001c8:	dec00204 	addi	sp,sp,8
  8001cc:	f800283a 	ret

008001d0 <alt_instruction_exception_entry>:
 * that handler if it has been registered. Absent a handler, it will
 * break break or hang as discussed below.
 */
int 
alt_instruction_exception_entry (alt_u32 exception_pc)
{
  8001d0:	defffb04 	addi	sp,sp,-20
  8001d4:	dfc00415 	stw	ra,16(sp)
  8001d8:	df000315 	stw	fp,12(sp)
  8001dc:	df000304 	addi	fp,sp,12
  8001e0:	e13fff15 	stw	r4,-4(fp)
 * NIOS2_EXCEPTION_CAUSE_NOT_PRESENT. Your handling routine should
 * check the validity of the cause argument before proceeding.
 */
#ifdef NIOS2_HAS_EXTRA_EXCEPTION_INFO
  /* Get exception cause & "badaddr" */
  NIOS2_READ_EXCEPTION(cause);
  8001e4:	000531fa 	rdctl	r2,exception
  8001e8:	e0bffd15 	stw	r2,-12(fp)
  cause = ( (cause & NIOS2_EXCEPTION_REG_CAUSE_MASK) >>
  8001ec:	e0bffd17 	ldw	r2,-12(fp)
  8001f0:	10801f0c 	andi	r2,r2,124
  8001f4:	1004d0ba 	srli	r2,r2,2
  8001f8:	e0bffd15 	stw	r2,-12(fp)
              NIOS2_EXCEPTION_REG_CAUSE_OFST );

  NIOS2_READ_BADADDR(badaddr);
  8001fc:	0005333a 	rdctl	r2,badaddr
  800200:	e0bffe15 	stw	r2,-8(fp)
#else
  cause = NIOS2_EXCEPTION_CAUSE_NOT_PRESENT;
  badaddr = 0;
#endif /* NIOS2_HAS_EXTRA_EXCEPTION_INFO */

  if(alt_instruction_exception_handler) {
  800204:	d0a75717 	ldw	r2,-25252(gp)
  800208:	10000726 	beq	r2,zero,800228 <alt_instruction_exception_entry+0x58>
     * Call handler. Its return value indicates whether the exception-causing
     * instruction should be re-issued. The code that called us,
     * alt_eceptions_entry.S, will look at this value and adjust the ea
     * register as necessary
     */
    return alt_instruction_exception_handler(cause, exception_pc, badaddr);
  80020c:	d0a75717 	ldw	r2,-25252(gp)
  800210:	e0fffd17 	ldw	r3,-12(fp)
  800214:	e1bffe17 	ldw	r6,-8(fp)
  800218:	e17fff17 	ldw	r5,-4(fp)
  80021c:	1809883a 	mov	r4,r3
  800220:	103ee83a 	callr	r2
  800224:	00000206 	br	800230 <alt_instruction_exception_entry+0x60>
   *    (a peripheral which negates its interrupt output before its
   *    interrupt handler has been executed will cause spurious interrupts)
   */
  else {
#ifdef NIOS2_HAS_DEBUG_STUB
    NIOS2_BREAK();
  800228:	003da03a 	break	0
      ;
#endif /* NIOS2_HAS_DEBUG_STUB */
  }

  /* We should not get here. Remove compiler warning. */
  return NIOS2_EXCEPTION_RETURN_REISSUE_INST;
  80022c:	0005883a 	mov	r2,zero
}
  800230:	e037883a 	mov	sp,fp
  800234:	dfc00117 	ldw	ra,4(sp)
  800238:	df000017 	ldw	fp,0(sp)
  80023c:	dec00204 	addi	sp,sp,8
  800240:	f800283a 	ret

Disassembly of section .text:

00800244 <_start>:

    /* Assume the data cache size is always a power of two. */
#if NIOS2_DCACHE_SIZE > 0x8000
    movhi r2, %hi(NIOS2_DCACHE_SIZE)
#else
    movui r2, NIOS2_DCACHE_SIZE
  800244:	00820014 	movui	r2,2048
#endif

0:
    initd 0(r2)
  800248:	10000033 	initd	0(r2)
#ifdef NIOS2_ECC_PRESENT
    addi r2, r2, -4
#else
    addi r2, r2, -NIOS2_DCACHE_LINE_SIZE
  80024c:	10bff804 	addi	r2,r2,-32
#endif
    bgt r2, zero, 0b
  800250:	00bffd16 	blt	zero,r2,800248 <__alt_mem_onchip_mem+0xff7f8248>

    /*
     * Now that the caches are initialized, set up the stack pointer and global pointer.
     * The values provided by the linker are assumed to be correctly aligned.
     */
    movhi sp, %hi(__alt_stack_pointer)
  800254:	06c04034 	movhi	sp,256
    ori sp, sp, %lo(__alt_stack_pointer)
  800258:	dec00014 	ori	sp,sp,0
    movhi gp, %hi(_gp)
  80025c:	068020b4 	movhi	gp,130
    ori gp, gp, %lo(_gp)
  800260:	d6a64c14 	ori	gp,gp,39216
 */
#ifndef ALT_SIM_OPTIMIZE
    /* Log that the BSS is about to be cleared. */
    ALT_LOG_PUTS(alt_log_msg_bss)

    movhi r2, %hi(__bss_start)
  800264:	008020b4 	movhi	r2,130
    ori r2, r2, %lo(__bss_start)
  800268:	108d9614 	ori	r2,r2,13912

    movhi r3, %hi(__bss_end)
  80026c:	00c020b4 	movhi	r3,130
    ori r3, r3, %lo(__bss_end)
  800270:	18cdee14 	ori	r3,r3,14264

    beq r2, r3, 1f
  800274:	10c00326 	beq	r2,r3,800284 <_start+0x40>

0:
    stw zero, (r2)
  800278:	10000015 	stw	zero,0(r2)
    addi r2, r2, 4
  80027c:	10800104 	addi	r2,r2,4
    bltu r2, r3, 0b
  800280:	10fffd36 	bltu	r2,r3,800278 <__alt_mem_onchip_mem+0xff7f8278>
     * section aren't defined until alt_load() has been called).
     */
    mov   et, zero
#endif

    call alt_load
  800284:	081b8580 	call	81b858 <alt_load>

    /* Log that alt_main is about to be called. */
    ALT_LOG_PUTS(alt_log_msg_alt_main)

    /* Call the C entry point. It should never return. */
    call alt_main
  800288:	081b9ec0 	call	81b9ec <alt_main>

0080028c <alt_after_alt_main>:

    /* Wait in infinite loop in case alt_main does return. */
alt_after_alt_main:
    br alt_after_alt_main
  80028c:	003fff06 	br	80028c <__alt_mem_onchip_mem+0xff7f828c>

00800290 <timerISR>:
#include <sys/alt_irq.h>
#include <altera_avalon_pio_regs.h>

#include "sccharts.h"

alt_u32 timerISR(void* context){
  800290:	defffd04 	addi	sp,sp,-12
  800294:	df000215 	stw	fp,8(sp)
  800298:	df000204 	addi	fp,sp,8
  80029c:	e13fff15 	stw	r4,-4(fp)
	int* timeCount = (int*) context;
  8002a0:	e0bfff17 	ldw	r2,-4(fp)
  8002a4:	e0bffe15 	stw	r2,-8(fp)
	(*timeCount)++;
  8002a8:	e0bffe17 	ldw	r2,-8(fp)
  8002ac:	10800017 	ldw	r2,0(r2)
  8002b0:	10c00044 	addi	r3,r2,1
  8002b4:	e0bffe17 	ldw	r2,-8(fp)
  8002b8:	10c00015 	stw	r3,0(r2)
	return 100; // next time out is 100ms
  8002bc:	00801904 	movi	r2,100
}
  8002c0:	e037883a 	mov	sp,fp
  8002c4:	df000017 	ldw	fp,0(sp)
  8002c8:	dec00104 	addi	sp,sp,4
  8002cc:	f800283a 	ret

008002d0 <buttonISR>:

void buttonISR(void* context, alt_u32 id){
  8002d0:	defffc04 	addi	sp,sp,-16
  8002d4:	df000315 	stw	fp,12(sp)
  8002d8:	df000304 	addi	fp,sp,12
  8002dc:	e13ffe15 	stw	r4,-8(fp)
  8002e0:	e17fff15 	stw	r5,-4(fp)
	int* temp = (void*) context;
  8002e4:	e0bffe17 	ldw	r2,-8(fp)
  8002e8:	e0bffd15 	stw	r2,-12(fp)
	(*temp)++;
  8002ec:	e0bffd17 	ldw	r2,-12(fp)
  8002f0:	10800017 	ldw	r2,0(r2)
  8002f4:	10c00044 	addi	r3,r2,1
  8002f8:	e0bffd17 	ldw	r2,-12(fp)
  8002fc:	10c00015 	stw	r3,0(r2)
	IOWR_ALTERA_AVALON_PIO_EDGE_CAP(KEYS_BASE, 0);
  800300:	0007883a 	mov	r3,zero
  800304:	00804074 	movhi	r2,257
  800308:	10842b04 	addi	r2,r2,4268
  80030c:	10c00035 	stwio	r3,0(r2)

}
  800310:	0001883a 	nop
  800314:	e037883a 	mov	sp,fp
  800318:	df000017 	ldw	fp,0(sp)
  80031c:	dec00104 	addi	sp,sp,4
  800320:	f800283a 	ret

00800324 <main>:

int main()
{
  800324:	deff9704 	addi	sp,sp,-420
  800328:	dfc06815 	stw	ra,416(sp)
  80032c:	df006715 	stw	fp,412(sp)
  800330:	df006704 	addi	fp,sp,412
  printf("Hello from Nios II!\n");
  800334:	010020b4 	movhi	r4,130
  800338:	213d3804 	addi	r4,r4,-2848
  80033c:	08079240 	call	807924 <puts>
  // Button init
  int button = 0;
  800340:	e03f9d15 	stw	zero,-396(fp)
  void* buttonContext = (void*) &button;
  800344:	e0bf9d04 	addi	r2,fp,-396
  800348:	e0bf9b15 	stw	r2,-404(fp)
  IOWR_ALTERA_AVALON_PIO_EDGE_CAP(KEYS_BASE, 0);
  80034c:	0007883a 	mov	r3,zero
  800350:	00804074 	movhi	r2,257
  800354:	10842b04 	addi	r2,r2,4268
  800358:	10c00035 	stwio	r3,0(r2)
  IOWR_ALTERA_AVALON_PIO_IRQ_MASK(KEYS_BASE, 0x02);
  80035c:	00c00084 	movi	r3,2
  800360:	00804074 	movhi	r2,257
  800364:	10842a04 	addi	r2,r2,4264
  800368:	10c00035 	stwio	r3,0(r2)
  alt_irq_register(KEYS_IRQ,buttonContext, buttonISR);
  80036c:	01802034 	movhi	r6,128
  800370:	3180b404 	addi	r6,r6,720
  800374:	e17f9b17 	ldw	r5,-404(fp)
  800378:	01000104 	movi	r4,4
  80037c:	081b5900 	call	81b590 <alt_irq_register>

  // SC Chart Init
  TickData data;
  reset(&data);
  800380:	e0bf9e04 	addi	r2,fp,-392
  800384:	1009883a 	mov	r4,r2
  800388:	08057d40 	call	8057d4 <reset>
  tick(&data); // init tick
  80038c:	e0bf9e04 	addi	r2,fp,-392
  800390:	1009883a 	mov	r4,r2
  800394:	08059700 	call	805970 <tick>
  // Timer Init
  alt_alarm ticker;
  uint64_t systemTime = 0;
  800398:	e03ffd15 	stw	zero,-12(fp)
  80039c:	e03ffe15 	stw	zero,-8(fp)
  void* timerContext = (void*) &systemTime;
  8003a0:	e0bffd04 	addi	r2,fp,-12
  8003a4:	e0bf9c15 	stw	r2,-400(fp)
  alt_alarm_start(&ticker, 1, timerISR, timerContext);
  8003a8:	e0bff704 	addi	r2,fp,-36
  8003ac:	e1ff9c17 	ldw	r7,-400(fp)
  8003b0:	01802034 	movhi	r6,128
  8003b4:	3180a404 	addi	r6,r6,656
  8003b8:	01400044 	movi	r5,1
  8003bc:	1009883a 	mov	r4,r2
  8003c0:	081b2400 	call	81b240 <alt_alarm_start>
  uint64_t prevTime = 0;
  8003c4:	e03f9915 	stw	zero,-412(fp)
  8003c8:	e03f9a15 	stw	zero,-408(fp)

  // Reset LED
  IOWR_ALTERA_AVALON_PIO_DATA(LEDS_GREEN_BASE, 0x00);
  8003cc:	0007883a 	mov	r3,zero
  8003d0:	00804074 	movhi	r2,257
  8003d4:	10841c04 	addi	r2,r2,4208
  8003d8:	10c00035 	stwio	r3,0(r2)

  // Blocking UART
  int choice;
  printf("Enter anything to begin");
  8003dc:	010020b4 	movhi	r4,130
  8003e0:	213d3d04 	addi	r4,r4,-2828
  8003e4:	08078280 	call	807828 <printf>
  scanf("%x", &choice);
  8003e8:	e0bfff04 	addi	r2,fp,-4
  8003ec:	100b883a 	mov	r5,r2
  8003f0:	010020b4 	movhi	r4,130
  8003f4:	213d4304 	addi	r4,r4,-2804
  8003f8:	08079380 	call	807938 <scanf>
  printf("Entered: %x\n", choice);
  8003fc:	e0bfff17 	ldw	r2,-4(fp)
  800400:	100b883a 	mov	r5,r2
  800404:	010020b4 	movhi	r4,130
  800408:	213d4404 	addi	r4,r4,-2800
  80040c:	08078280 	call	807828 <printf>

  while(1){
	  // update time
	  data.deltaT = systemTime - prevTime;
  800410:	e13ffd17 	ldw	r4,-12(fp)
  800414:	e17ffe17 	ldw	r5,-8(fp)
  800418:	e1bf9917 	ldw	r6,-412(fp)
  80041c:	e1ff9a17 	ldw	r7,-408(fp)
  800420:	2185c83a 	sub	r2,r4,r6
  800424:	2091803a 	cmpltu	r8,r4,r2
  800428:	29c7c83a 	sub	r3,r5,r7
  80042c:	1a09c83a 	sub	r4,r3,r8
  800430:	2007883a 	mov	r3,r4
  800434:	100b883a 	mov	r5,r2
  800438:	180d883a 	mov	r6,r3
  80043c:	2809883a 	mov	r4,r5
  800440:	300b883a 	mov	r5,r6
  800444:	0805bec0 	call	805bec <__floatundidf>
  800448:	1009883a 	mov	r4,r2
  80044c:	180b883a 	mov	r5,r3
  800450:	e13fa415 	stw	r4,-368(fp)
  800454:	e17fa515 	stw	r5,-364(fp)
	  prevTime = systemTime;
  800458:	e0bffd17 	ldw	r2,-12(fp)
  80045c:	e0bf9915 	stw	r2,-412(fp)
  800460:	e0bffe17 	ldw	r2,-8(fp)
  800464:	e0bf9a15 	stw	r2,-408(fp)

	  // update inputs

	  tick(&data);
  800468:	e0bf9e04 	addi	r2,fp,-392
  80046c:	1009883a 	mov	r4,r2
  800470:	08059700 	call	805970 <tick>
//		  IOWR_ALTERA_AVALON_PIO_DATA(LEDS_RED_BASE, 0x01);
//	  } else {
//		  IOWR_ALTERA_AVALON_PIO_DATA(LEDS_RED_BASE, 0x00);
//	  }

	  if(button){
  800474:	e0bf9d17 	ldw	r2,-396(fp)
  800478:	103fe526 	beq	r2,zero,800410 <__alt_mem_onchip_mem+0xff7f8410>
		  IOWR_ALTERA_AVALON_PIO_DATA(LEDS_RED_BASE, 0x00);
  80047c:	0007883a 	mov	r3,zero
  800480:	00804074 	movhi	r2,257
  800484:	10842004 	addi	r2,r2,4224
  800488:	10c00035 	stwio	r3,0(r2)
		  IOWR_ALTERA_AVALON_PIO_DATA(LEDS_GREEN_BASE, 0x01);
  80048c:	00c00044 	movi	r3,1
  800490:	00804074 	movhi	r2,257
  800494:	10841c04 	addi	r2,r2,4208
  800498:	10c00035 	stwio	r3,0(r2)
		  printf("System Shutting Down... Goodbye!\n");
  80049c:	010020b4 	movhi	r4,130
  8004a0:	213d4804 	addi	r4,r4,-2784
  8004a4:	08079240 	call	807924 <puts>
		  break;
  8004a8:	0001883a 	nop
	  }
  }
//  while(1);
  return 0;
  8004ac:	0005883a 	mov	r2,zero
}
  8004b0:	e037883a 	mov	sp,fp
  8004b4:	dfc00117 	ldw	ra,4(sp)
  8004b8:	df000017 	ldw	fp,0(sp)
  8004bc:	dec00204 	addi	sp,sp,8
  8004c0:	f800283a 	ret

008004c4 <logic>:
#include "timing.h"
#include <stdio.h>

#include "sccharts.h"

void logic(TickData* d) {
  8004c4:	defffb04 	addi	sp,sp,-20
  8004c8:	dfc00415 	stw	ra,16(sp)
  8004cc:	df000315 	stw	fp,12(sp)
  8004d0:	dc400215 	stw	r17,8(sp)
  8004d4:	dc000115 	stw	r16,4(sp)
  8004d8:	df000304 	addi	fp,sp,12
  8004dc:	e13ffd15 	stw	r4,-12(fp)
  d->VRP_ACTIVE = 0;
  8004e0:	e0bffd17 	ldw	r2,-12(fp)
  8004e4:	10000a85 	stb	zero,42(r2)
  d->URI_ACTIVE = 0;
  8004e8:	e0bffd17 	ldw	r2,-12(fp)
  8004ec:	10000ac5 	stb	zero,43(r2)
  d->PVARP_ACTIVE = 0;
  8004f0:	e0bffd17 	ldw	r2,-12(fp)
  8004f4:	10000b05 	stb	zero,44(r2)
  d->LRI_ACTIVE = 0;
  8004f8:	e0bffd17 	ldw	r2,-12(fp)
  8004fc:	10000b45 	stb	zero,45(r2)
  d->AP = 0;
  800500:	e0bffd17 	ldw	r2,-12(fp)
  800504:	10000b85 	stb	zero,46(r2)
  d->VP = 0;
  800508:	e0bffd17 	ldw	r2,-12(fp)
  80050c:	10000bc5 	stb	zero,47(r2)
  d->_g83 = d->_pg69;
  800510:	e0bffd17 	ldw	r2,-12(fp)
  800514:	10c04f83 	ldbu	r3,318(r2)
  800518:	e0bffd17 	ldw	r2,-12(fp)
  80051c:	10c023c5 	stb	r3,143(r2)
  if (d->_g83) {
  800520:	e0bffd17 	ldw	r2,-12(fp)
  800524:	108023c3 	ldbu	r2,143(r2)
  800528:	10803fcc 	andi	r2,r2,255
  80052c:	1080201c 	xori	r2,r2,128
  800530:	10bfe004 	addi	r2,r2,-128
  800534:	10000626 	beq	r2,zero,800550 <logic+0x8c>
    d->VRP_ACTIVE |= 1;
  800538:	e0bffd17 	ldw	r2,-12(fp)
  80053c:	10800a83 	ldbu	r2,42(r2)
  800540:	10800054 	ori	r2,r2,1
  800544:	1007883a 	mov	r3,r2
  800548:	e0bffd17 	ldw	r2,-12(fp)
  80054c:	10c00a85 	stb	r3,42(r2)
  }
  d->_pre_VP = d->_reg_VP;
  800550:	e0bffd17 	ldw	r2,-12(fp)
  800554:	10c00c03 	ldbu	r3,48(r2)
  800558:	e0bffd17 	ldw	r2,-12(fp)
  80055c:	10c00c45 	stb	r3,49(r2)
  d->_g15 = d->_pg12;
  800560:	e0bffd17 	ldw	r2,-12(fp)
  800564:	10c04fc3 	ldbu	r3,319(r2)
  800568:	e0bffd17 	ldw	r2,-12(fp)
  80056c:	10c01945 	stb	r3,101(r2)
  d->_g9 = d->_pg24;
  800570:	e0bffd17 	ldw	r2,-12(fp)
  800574:	10c05003 	ldbu	r3,320(r2)
  800578:	e0bffd17 	ldw	r2,-12(fp)
  80057c:	10c01805 	stb	r3,96(r2)
  d->_g10_e1 = !(d->_g15 || d->_g9);
  800580:	e0bffd17 	ldw	r2,-12(fp)
  800584:	10801943 	ldbu	r2,101(r2)
  800588:	10803fcc 	andi	r2,r2,255
  80058c:	1080201c 	xori	r2,r2,128
  800590:	10bfe004 	addi	r2,r2,-128
  800594:	1000081e 	bne	r2,zero,8005b8 <logic+0xf4>
  800598:	e0bffd17 	ldw	r2,-12(fp)
  80059c:	10801803 	ldbu	r2,96(r2)
  8005a0:	10803fcc 	andi	r2,r2,255
  8005a4:	1080201c 	xori	r2,r2,128
  8005a8:	10bfe004 	addi	r2,r2,-128
  8005ac:	1000021e 	bne	r2,zero,8005b8 <logic+0xf4>
  8005b0:	00800044 	movi	r2,1
  8005b4:	00000106 	br	8005bc <logic+0xf8>
  8005b8:	0005883a 	mov	r2,zero
  8005bc:	1007883a 	mov	r3,r2
  8005c0:	e0bffd17 	ldw	r2,-12(fp)
  8005c4:	10c04945 	stb	r3,293(r2)
  d->_cg9 = d->VS || d->_pre_VP && !d->VRP_ACTIVE;
  8005c8:	e0bffd17 	ldw	r2,-12(fp)
  8005cc:	10800a43 	ldbu	r2,41(r2)
  8005d0:	10803fcc 	andi	r2,r2,255
  8005d4:	1080201c 	xori	r2,r2,128
  8005d8:	10bfe004 	addi	r2,r2,-128
  8005dc:	10000c1e 	bne	r2,zero,800610 <logic+0x14c>
  8005e0:	e0bffd17 	ldw	r2,-12(fp)
  8005e4:	10800c43 	ldbu	r2,49(r2)
  8005e8:	10803fcc 	andi	r2,r2,255
  8005ec:	1080201c 	xori	r2,r2,128
  8005f0:	10bfe004 	addi	r2,r2,-128
  8005f4:	10000826 	beq	r2,zero,800618 <logic+0x154>
  8005f8:	e0bffd17 	ldw	r2,-12(fp)
  8005fc:	10800a83 	ldbu	r2,42(r2)
  800600:	10803fcc 	andi	r2,r2,255
  800604:	1080201c 	xori	r2,r2,128
  800608:	10bfe004 	addi	r2,r2,-128
  80060c:	1000021e 	bne	r2,zero,800618 <logic+0x154>
  800610:	00800044 	movi	r2,1
  800614:	00000106 	br	80061c <logic+0x158>
  800618:	0005883a 	mov	r2,zero
  80061c:	1007883a 	mov	r3,r2
  800620:	e0bffd17 	ldw	r2,-12(fp)
  800624:	10c036c5 	stb	r3,219(r2)
  d->_g142 = d->_pg107;
  800628:	e0bffd17 	ldw	r2,-12(fp)
  80062c:	10c05043 	ldbu	r3,321(r2)
  800630:	e0bffd17 	ldw	r2,-12(fp)
  800634:	10c02d85 	stb	r3,182(r2)
  d->_g143 = d->_g142 && d->VS;
  800638:	e0bffd17 	ldw	r2,-12(fp)
  80063c:	10802d83 	ldbu	r2,182(r2)
  800640:	10803fcc 	andi	r2,r2,255
  800644:	1080201c 	xori	r2,r2,128
  800648:	10bfe004 	addi	r2,r2,-128
  80064c:	10000826 	beq	r2,zero,800670 <logic+0x1ac>
  800650:	e0bffd17 	ldw	r2,-12(fp)
  800654:	10800a43 	ldbu	r2,41(r2)
  800658:	10803fcc 	andi	r2,r2,255
  80065c:	1080201c 	xori	r2,r2,128
  800660:	10bfe004 	addi	r2,r2,-128
  800664:	10000226 	beq	r2,zero,800670 <logic+0x1ac>
  800668:	00800044 	movi	r2,1
  80066c:	00000106 	br	800674 <logic+0x1b0>
  800670:	0005883a 	mov	r2,zero
  800674:	1007883a 	mov	r3,r2
  800678:	e0bffd17 	ldw	r2,-12(fp)
  80067c:	10c02dc5 	stb	r3,183(r2)
  if (d->_g143) {
  800680:	e0bffd17 	ldw	r2,-12(fp)
  800684:	10802dc3 	ldbu	r2,183(r2)
  800688:	10803fcc 	andi	r2,r2,255
  80068c:	1080201c 	xori	r2,r2,128
  800690:	10bfe004 	addi	r2,r2,-128
  800694:	10000326 	beq	r2,zero,8006a4 <logic+0x1e0>
    d->_pacemaker_local__Atrig4 = 1;
  800698:	e0bffd17 	ldw	r2,-12(fp)
  80069c:	00c00044 	movi	r3,1
  8006a0:	10c00e05 	stb	r3,56(r2)
  }
  d->_g112 = d->_pg144_e3;
  8006a4:	e0bffd17 	ldw	r2,-12(fp)
  8006a8:	10c05083 	ldbu	r3,322(r2)
  8006ac:	e0bffd17 	ldw	r2,-12(fp)
  8006b0:	10c02845 	stb	r3,161(r2)
  d->_cg112 = d->_pacemaker_local__Atrig4;
  8006b4:	e0bffd17 	ldw	r2,-12(fp)
  8006b8:	10c00e03 	ldbu	r3,56(r2)
  8006bc:	e0bffd17 	ldw	r2,-12(fp)
  8006c0:	10c03fc5 	stb	r3,255(r2)
  d->_g114 = d->_g112 && !d->_cg112;
  8006c4:	e0bffd17 	ldw	r2,-12(fp)
  8006c8:	10802843 	ldbu	r2,161(r2)
  8006cc:	10803fcc 	andi	r2,r2,255
  8006d0:	1080201c 	xori	r2,r2,128
  8006d4:	10bfe004 	addi	r2,r2,-128
  8006d8:	10000826 	beq	r2,zero,8006fc <logic+0x238>
  8006dc:	e0bffd17 	ldw	r2,-12(fp)
  8006e0:	10803fc3 	ldbu	r2,255(r2)
  8006e4:	10803fcc 	andi	r2,r2,255
  8006e8:	1080201c 	xori	r2,r2,128
  8006ec:	10bfe004 	addi	r2,r2,-128
  8006f0:	1000021e 	bne	r2,zero,8006fc <logic+0x238>
  8006f4:	00800044 	movi	r2,1
  8006f8:	00000106 	br	800700 <logic+0x23c>
  8006fc:	0005883a 	mov	r2,zero
  800700:	1007883a 	mov	r3,r2
  800704:	e0bffd17 	ldw	r2,-12(fp)
  800708:	10c028c5 	stb	r3,163(r2)
  if (d->_g114) {
  80070c:	e0bffd17 	ldw	r2,-12(fp)
  800710:	108028c3 	ldbu	r2,163(r2)
  800714:	10803fcc 	andi	r2,r2,255
  800718:	1080201c 	xori	r2,r2,128
  80071c:	10bfe004 	addi	r2,r2,-128
  800720:	10000626 	beq	r2,zero,80073c <logic+0x278>
    d->URI_ACTIVE |= 1;
  800724:	e0bffd17 	ldw	r2,-12(fp)
  800728:	10800ac3 	ldbu	r2,43(r2)
  80072c:	10800054 	ori	r2,r2,1
  800730:	1007883a 	mov	r3,r2
  800734:	e0bffd17 	ldw	r2,-12(fp)
  800738:	10c00ac5 	stb	r3,43(r2)
  }
  d->_g198 = d->_pg150;
  80073c:	e0bffd17 	ldw	r2,-12(fp)
  800740:	10c050c3 	ldbu	r3,323(r2)
  800744:	e0bffd17 	ldw	r2,-12(fp)
  800748:	10c034c5 	stb	r3,211(r2)
  if (d->_g198) {
  80074c:	e0bffd17 	ldw	r2,-12(fp)
  800750:	108034c3 	ldbu	r2,211(r2)
  800754:	10803fcc 	andi	r2,r2,255
  800758:	1080201c 	xori	r2,r2,128
  80075c:	10bfe004 	addi	r2,r2,-128
  800760:	10001226 	beq	r2,zero,8007ac <logic+0x2e8>
    d->_region0_null_x += d->deltaT;
  800764:	e13ffd17 	ldw	r4,-12(fp)
  800768:	20800017 	ldw	r2,0(r4)
  80076c:	20c00117 	ldw	r3,4(r4)
  800770:	e1bffd17 	ldw	r6,-12(fp)
  800774:	31000617 	ldw	r4,24(r6)
  800778:	31400717 	ldw	r5,28(r6)
  80077c:	200d883a 	mov	r6,r4
  800780:	280f883a 	mov	r7,r5
  800784:	1009883a 	mov	r4,r2
  800788:	180b883a 	mov	r5,r3
  80078c:	0805c5c0 	call	805c5c <__adddf3>
  800790:	1009883a 	mov	r4,r2
  800794:	180b883a 	mov	r5,r3
  800798:	2005883a 	mov	r2,r4
  80079c:	2807883a 	mov	r3,r5
  8007a0:	e13ffd17 	ldw	r4,-12(fp)
  8007a4:	20800015 	stw	r2,0(r4)
  8007a8:	20c00115 	stw	r3,4(r4)
  }
  d->_g19 = d->_pg7;
  8007ac:	e0bffd17 	ldw	r2,-12(fp)
  8007b0:	10c05103 	ldbu	r3,324(r2)
  8007b4:	e0bffd17 	ldw	r2,-12(fp)
  8007b8:	10c019c5 	stb	r3,103(r2)
  d->_cg19 = d->VS || d->_pre_VP && !d->VRP_ACTIVE;
  8007bc:	e0bffd17 	ldw	r2,-12(fp)
  8007c0:	10800a43 	ldbu	r2,41(r2)
  8007c4:	10803fcc 	andi	r2,r2,255
  8007c8:	1080201c 	xori	r2,r2,128
  8007cc:	10bfe004 	addi	r2,r2,-128
  8007d0:	10000c1e 	bne	r2,zero,800804 <logic+0x340>
  8007d4:	e0bffd17 	ldw	r2,-12(fp)
  8007d8:	10800c43 	ldbu	r2,49(r2)
  8007dc:	10803fcc 	andi	r2,r2,255
  8007e0:	1080201c 	xori	r2,r2,128
  8007e4:	10bfe004 	addi	r2,r2,-128
  8007e8:	10000826 	beq	r2,zero,80080c <logic+0x348>
  8007ec:	e0bffd17 	ldw	r2,-12(fp)
  8007f0:	10800a83 	ldbu	r2,42(r2)
  8007f4:	10803fcc 	andi	r2,r2,255
  8007f8:	1080201c 	xori	r2,r2,128
  8007fc:	10bfe004 	addi	r2,r2,-128
  800800:	1000021e 	bne	r2,zero,80080c <logic+0x348>
  800804:	00800044 	movi	r2,1
  800808:	00000106 	br	800810 <logic+0x34c>
  80080c:	0005883a 	mov	r2,zero
  800810:	1007883a 	mov	r3,r2
  800814:	e0bffd17 	ldw	r2,-12(fp)
  800818:	10c03845 	stb	r3,225(r2)
  d->_g21 = d->_g19 && !d->_cg19;
  80081c:	e0bffd17 	ldw	r2,-12(fp)
  800820:	108019c3 	ldbu	r2,103(r2)
  800824:	10803fcc 	andi	r2,r2,255
  800828:	1080201c 	xori	r2,r2,128
  80082c:	10bfe004 	addi	r2,r2,-128
  800830:	10000826 	beq	r2,zero,800854 <logic+0x390>
  800834:	e0bffd17 	ldw	r2,-12(fp)
  800838:	10803843 	ldbu	r2,225(r2)
  80083c:	10803fcc 	andi	r2,r2,255
  800840:	1080201c 	xori	r2,r2,128
  800844:	10bfe004 	addi	r2,r2,-128
  800848:	1000021e 	bne	r2,zero,800854 <logic+0x390>
  80084c:	00800044 	movi	r2,1
  800850:	00000106 	br	800858 <logic+0x394>
  800854:	0005883a 	mov	r2,zero
  800858:	1007883a 	mov	r3,r2
  80085c:	e0bffd17 	ldw	r2,-12(fp)
  800860:	10c01a45 	stb	r3,105(r2)
  d->_cg21 = d->_region0_null_x >= AVI_VALUE && !d->URI_ACTIVE;
  800864:	e13ffd17 	ldw	r4,-12(fp)
  800868:	20800017 	ldw	r2,0(r4)
  80086c:	20c00117 	ldw	r3,4(r4)
  800870:	000d883a 	mov	r6,zero
  800874:	01d01cf4 	movhi	r7,16499
  800878:	39f00004 	addi	r7,r7,-16384
  80087c:	1009883a 	mov	r4,r2
  800880:	180b883a 	mov	r5,r3
  800884:	08065080 	call	806508 <__gedf2>
  800888:	10000816 	blt	r2,zero,8008ac <logic+0x3e8>
  80088c:	e0bffd17 	ldw	r2,-12(fp)
  800890:	10800ac3 	ldbu	r2,43(r2)
  800894:	10803fcc 	andi	r2,r2,255
  800898:	1080201c 	xori	r2,r2,128
  80089c:	10bfe004 	addi	r2,r2,-128
  8008a0:	1000021e 	bne	r2,zero,8008ac <logic+0x3e8>
  8008a4:	00800044 	movi	r2,1
  8008a8:	00000106 	br	8008b0 <logic+0x3ec>
  8008ac:	0005883a 	mov	r2,zero
  8008b0:	1007883a 	mov	r3,r2
  8008b4:	e0bffd17 	ldw	r2,-12(fp)
  8008b8:	10c03805 	stb	r3,224(r2)
  d->_g22 = d->_g21 && d->_cg21;
  8008bc:	e0bffd17 	ldw	r2,-12(fp)
  8008c0:	10801a43 	ldbu	r2,105(r2)
  8008c4:	10803fcc 	andi	r2,r2,255
  8008c8:	1080201c 	xori	r2,r2,128
  8008cc:	10bfe004 	addi	r2,r2,-128
  8008d0:	10000826 	beq	r2,zero,8008f4 <logic+0x430>
  8008d4:	e0bffd17 	ldw	r2,-12(fp)
  8008d8:	10803803 	ldbu	r2,224(r2)
  8008dc:	10803fcc 	andi	r2,r2,255
  8008e0:	1080201c 	xori	r2,r2,128
  8008e4:	10bfe004 	addi	r2,r2,-128
  8008e8:	10000226 	beq	r2,zero,8008f4 <logic+0x430>
  8008ec:	00800044 	movi	r2,1
  8008f0:	00000106 	br	8008f8 <logic+0x434>
  8008f4:	0005883a 	mov	r2,zero
  8008f8:	1007883a 	mov	r3,r2
  8008fc:	e0bffd17 	ldw	r2,-12(fp)
  800900:	10c01a85 	stb	r3,106(r2)
  if (d->_g22) {
  800904:	e0bffd17 	ldw	r2,-12(fp)
  800908:	10801a83 	ldbu	r2,106(r2)
  80090c:	10803fcc 	andi	r2,r2,255
  800910:	1080201c 	xori	r2,r2,128
  800914:	10bfe004 	addi	r2,r2,-128
  800918:	10000326 	beq	r2,zero,800928 <logic+0x464>
    d->_pacemaker_local__Atrig = 1;
  80091c:	e0bffd17 	ldw	r2,-12(fp)
  800920:	00c00044 	movi	r3,1
  800924:	10c00d45 	stb	r3,53(r2)
  }
  d->sleepT = 1000.0;
  800928:	e0fffd17 	ldw	r3,-12(fp)
  80092c:	18000815 	stw	zero,32(r3)
  800930:	009023f4 	movhi	r2,16527
  800934:	10900004 	addi	r2,r2,16384
  800938:	18800915 	stw	r2,36(r3)
  d->_cg15 = d->VS || d->_pre_VP && !d->VRP_ACTIVE;
  80093c:	e0bffd17 	ldw	r2,-12(fp)
  800940:	10800a43 	ldbu	r2,41(r2)
  800944:	10803fcc 	andi	r2,r2,255
  800948:	1080201c 	xori	r2,r2,128
  80094c:	10bfe004 	addi	r2,r2,-128
  800950:	10000c1e 	bne	r2,zero,800984 <logic+0x4c0>
  800954:	e0bffd17 	ldw	r2,-12(fp)
  800958:	10800c43 	ldbu	r2,49(r2)
  80095c:	10803fcc 	andi	r2,r2,255
  800960:	1080201c 	xori	r2,r2,128
  800964:	10bfe004 	addi	r2,r2,-128
  800968:	10000826 	beq	r2,zero,80098c <logic+0x4c8>
  80096c:	e0bffd17 	ldw	r2,-12(fp)
  800970:	10800a83 	ldbu	r2,42(r2)
  800974:	10803fcc 	andi	r2,r2,255
  800978:	1080201c 	xori	r2,r2,128
  80097c:	10bfe004 	addi	r2,r2,-128
  800980:	1000021e 	bne	r2,zero,80098c <logic+0x4c8>
  800984:	00800044 	movi	r2,1
  800988:	00000106 	br	800990 <logic+0x4cc>
  80098c:	0005883a 	mov	r2,zero
  800990:	1007883a 	mov	r3,r2
  800994:	e0bffd17 	ldw	r2,-12(fp)
  800998:	10c03745 	stb	r3,221(r2)
  d->_g11 = d->_g9 && !d->_cg9 || d->_g15 && !d->_cg15;
  80099c:	e0bffd17 	ldw	r2,-12(fp)
  8009a0:	10801803 	ldbu	r2,96(r2)
  8009a4:	10803fcc 	andi	r2,r2,255
  8009a8:	1080201c 	xori	r2,r2,128
  8009ac:	10bfe004 	addi	r2,r2,-128
  8009b0:	10000626 	beq	r2,zero,8009cc <logic+0x508>
  8009b4:	e0bffd17 	ldw	r2,-12(fp)
  8009b8:	108036c3 	ldbu	r2,219(r2)
  8009bc:	10803fcc 	andi	r2,r2,255
  8009c0:	1080201c 	xori	r2,r2,128
  8009c4:	10bfe004 	addi	r2,r2,-128
  8009c8:	10000c26 	beq	r2,zero,8009fc <logic+0x538>
  8009cc:	e0bffd17 	ldw	r2,-12(fp)
  8009d0:	10801943 	ldbu	r2,101(r2)
  8009d4:	10803fcc 	andi	r2,r2,255
  8009d8:	1080201c 	xori	r2,r2,128
  8009dc:	10bfe004 	addi	r2,r2,-128
  8009e0:	10000826 	beq	r2,zero,800a04 <logic+0x540>
  8009e4:	e0bffd17 	ldw	r2,-12(fp)
  8009e8:	10803743 	ldbu	r2,221(r2)
  8009ec:	10803fcc 	andi	r2,r2,255
  8009f0:	1080201c 	xori	r2,r2,128
  8009f4:	10bfe004 	addi	r2,r2,-128
  8009f8:	1000021e 	bne	r2,zero,800a04 <logic+0x540>
  8009fc:	00800044 	movi	r2,1
  800a00:	00000106 	br	800a08 <logic+0x544>
  800a04:	0005883a 	mov	r2,zero
  800a08:	1007883a 	mov	r3,r2
  800a0c:	e0bffd17 	ldw	r2,-12(fp)
  800a10:	10c01885 	stb	r3,98(r2)
  d->_cg11 = d->_region0_null_x < AVI_VALUE;
  800a14:	e13ffd17 	ldw	r4,-12(fp)
  800a18:	20800017 	ldw	r2,0(r4)
  800a1c:	20c00117 	ldw	r3,4(r4)
  800a20:	04000044 	movi	r16,1
  800a24:	000d883a 	mov	r6,zero
  800a28:	01d01cf4 	movhi	r7,16499
  800a2c:	39f00004 	addi	r7,r7,-16384
  800a30:	1009883a 	mov	r4,r2
  800a34:	180b883a 	mov	r5,r3
  800a38:	08065e40 	call	8065e4 <__ledf2>
  800a3c:	10000116 	blt	r2,zero,800a44 <logic+0x580>
  800a40:	0021883a 	mov	r16,zero
  800a44:	8007883a 	mov	r3,r16
  800a48:	e0bffd17 	ldw	r2,-12(fp)
  800a4c:	10c03785 	stb	r3,222(r2)
  d->_g12 = d->_g11 && d->_cg11;
  800a50:	e0bffd17 	ldw	r2,-12(fp)
  800a54:	10801883 	ldbu	r2,98(r2)
  800a58:	10803fcc 	andi	r2,r2,255
  800a5c:	1080201c 	xori	r2,r2,128
  800a60:	10bfe004 	addi	r2,r2,-128
  800a64:	10000826 	beq	r2,zero,800a88 <logic+0x5c4>
  800a68:	e0bffd17 	ldw	r2,-12(fp)
  800a6c:	10803783 	ldbu	r2,222(r2)
  800a70:	10803fcc 	andi	r2,r2,255
  800a74:	1080201c 	xori	r2,r2,128
  800a78:	10bfe004 	addi	r2,r2,-128
  800a7c:	10000226 	beq	r2,zero,800a88 <logic+0x5c4>
  800a80:	00800044 	movi	r2,1
  800a84:	00000106 	br	800a8c <logic+0x5c8>
  800a88:	0005883a 	mov	r2,zero
  800a8c:	1007883a 	mov	r3,r2
  800a90:	e0bffd17 	ldw	r2,-12(fp)
  800a94:	10c018c5 	stb	r3,99(r2)
  if (d->_g12) {
  800a98:	e0bffd17 	ldw	r2,-12(fp)
  800a9c:	108018c3 	ldbu	r2,99(r2)
  800aa0:	10803fcc 	andi	r2,r2,255
  800aa4:	1080201c 	xori	r2,r2,128
  800aa8:	10bfe004 	addi	r2,r2,-128
  800aac:	10002a26 	beq	r2,zero,800b58 <logic+0x694>
    d->sleepT = (d->sleepT < (AVI_VALUE - d->_region0_null_x)) ? d->sleepT : (AVI_VALUE - d->_region0_null_x);
  800ab0:	e0bffd17 	ldw	r2,-12(fp)
  800ab4:	14000817 	ldw	r16,32(r2)
  800ab8:	14400917 	ldw	r17,36(r2)
  800abc:	e13ffd17 	ldw	r4,-12(fp)
  800ac0:	20800017 	ldw	r2,0(r4)
  800ac4:	20c00117 	ldw	r3,4(r4)
  800ac8:	100d883a 	mov	r6,r2
  800acc:	180f883a 	mov	r7,r3
  800ad0:	0009883a 	mov	r4,zero
  800ad4:	01501cf4 	movhi	r5,16499
  800ad8:	29700004 	addi	r5,r5,-16384
  800adc:	0806df00 	call	806df0 <__subdf3>
  800ae0:	1009883a 	mov	r4,r2
  800ae4:	180b883a 	mov	r5,r3
  800ae8:	2005883a 	mov	r2,r4
  800aec:	2807883a 	mov	r3,r5
  800af0:	100d883a 	mov	r6,r2
  800af4:	180f883a 	mov	r7,r3
  800af8:	8009883a 	mov	r4,r16
  800afc:	880b883a 	mov	r5,r17
  800b00:	08065e40 	call	8065e4 <__ledf2>
  800b04:	1000040e 	bge	r2,zero,800b18 <logic+0x654>
  800b08:	e13ffd17 	ldw	r4,-12(fp)
  800b0c:	20800817 	ldw	r2,32(r4)
  800b10:	20c00917 	ldw	r3,36(r4)
  800b14:	00000d06 	br	800b4c <logic+0x688>
  800b18:	e13ffd17 	ldw	r4,-12(fp)
  800b1c:	20800017 	ldw	r2,0(r4)
  800b20:	20c00117 	ldw	r3,4(r4)
  800b24:	100d883a 	mov	r6,r2
  800b28:	180f883a 	mov	r7,r3
  800b2c:	0009883a 	mov	r4,zero
  800b30:	01501cf4 	movhi	r5,16499
  800b34:	29700004 	addi	r5,r5,-16384
  800b38:	0806df00 	call	806df0 <__subdf3>
  800b3c:	1009883a 	mov	r4,r2
  800b40:	180b883a 	mov	r5,r3
  800b44:	2005883a 	mov	r2,r4
  800b48:	2807883a 	mov	r3,r5
  800b4c:	e13ffd17 	ldw	r4,-12(fp)
  800b50:	20800815 	stw	r2,32(r4)
  800b54:	20c00915 	stw	r3,36(r4)
  }
  d->_cg12 = d->_pacemaker_local__Atrig;
  800b58:	e0bffd17 	ldw	r2,-12(fp)
  800b5c:	10c00d43 	ldbu	r3,53(r2)
  800b60:	e0bffd17 	ldw	r2,-12(fp)
  800b64:	10c03685 	stb	r3,218(r2)
  d->_g11 = d->_g11 && !d->_cg11;
  800b68:	e0bffd17 	ldw	r2,-12(fp)
  800b6c:	10801883 	ldbu	r2,98(r2)
  800b70:	10803fcc 	andi	r2,r2,255
  800b74:	1080201c 	xori	r2,r2,128
  800b78:	10bfe004 	addi	r2,r2,-128
  800b7c:	10000826 	beq	r2,zero,800ba0 <logic+0x6dc>
  800b80:	e0bffd17 	ldw	r2,-12(fp)
  800b84:	10803783 	ldbu	r2,222(r2)
  800b88:	10803fcc 	andi	r2,r2,255
  800b8c:	1080201c 	xori	r2,r2,128
  800b90:	10bfe004 	addi	r2,r2,-128
  800b94:	1000021e 	bne	r2,zero,800ba0 <logic+0x6dc>
  800b98:	00800044 	movi	r2,1
  800b9c:	00000106 	br	800ba4 <logic+0x6e0>
  800ba0:	0005883a 	mov	r2,zero
  800ba4:	1007883a 	mov	r3,r2
  800ba8:	e0bffd17 	ldw	r2,-12(fp)
  800bac:	10c01885 	stb	r3,98(r2)
  d->_cg13 = d->_pacemaker_local__Atrig;
  800bb0:	e0bffd17 	ldw	r2,-12(fp)
  800bb4:	10c00d43 	ldbu	r3,53(r2)
  800bb8:	e0bffd17 	ldw	r2,-12(fp)
  800bbc:	10c03705 	stb	r3,220(r2)
  d->_g15 = d->_g9 && d->_cg9 || d->_g12 && d->_cg12 || d->_g11 && d->_cg13 || d->_g15 && d->_cg15;
  800bc0:	e0bffd17 	ldw	r2,-12(fp)
  800bc4:	10801803 	ldbu	r2,96(r2)
  800bc8:	10803fcc 	andi	r2,r2,255
  800bcc:	1080201c 	xori	r2,r2,128
  800bd0:	10bfe004 	addi	r2,r2,-128
  800bd4:	10000626 	beq	r2,zero,800bf0 <logic+0x72c>
  800bd8:	e0bffd17 	ldw	r2,-12(fp)
  800bdc:	108036c3 	ldbu	r2,219(r2)
  800be0:	10803fcc 	andi	r2,r2,255
  800be4:	1080201c 	xori	r2,r2,128
  800be8:	10bfe004 	addi	r2,r2,-128
  800bec:	1000241e 	bne	r2,zero,800c80 <logic+0x7bc>
  800bf0:	e0bffd17 	ldw	r2,-12(fp)
  800bf4:	108018c3 	ldbu	r2,99(r2)
  800bf8:	10803fcc 	andi	r2,r2,255
  800bfc:	1080201c 	xori	r2,r2,128
  800c00:	10bfe004 	addi	r2,r2,-128
  800c04:	10000626 	beq	r2,zero,800c20 <logic+0x75c>
  800c08:	e0bffd17 	ldw	r2,-12(fp)
  800c0c:	10803683 	ldbu	r2,218(r2)
  800c10:	10803fcc 	andi	r2,r2,255
  800c14:	1080201c 	xori	r2,r2,128
  800c18:	10bfe004 	addi	r2,r2,-128
  800c1c:	1000181e 	bne	r2,zero,800c80 <logic+0x7bc>
  800c20:	e0bffd17 	ldw	r2,-12(fp)
  800c24:	10801883 	ldbu	r2,98(r2)
  800c28:	10803fcc 	andi	r2,r2,255
  800c2c:	1080201c 	xori	r2,r2,128
  800c30:	10bfe004 	addi	r2,r2,-128
  800c34:	10000626 	beq	r2,zero,800c50 <logic+0x78c>
  800c38:	e0bffd17 	ldw	r2,-12(fp)
  800c3c:	10803703 	ldbu	r2,220(r2)
  800c40:	10803fcc 	andi	r2,r2,255
  800c44:	1080201c 	xori	r2,r2,128
  800c48:	10bfe004 	addi	r2,r2,-128
  800c4c:	10000c1e 	bne	r2,zero,800c80 <logic+0x7bc>
  800c50:	e0bffd17 	ldw	r2,-12(fp)
  800c54:	10801943 	ldbu	r2,101(r2)
  800c58:	10803fcc 	andi	r2,r2,255
  800c5c:	1080201c 	xori	r2,r2,128
  800c60:	10bfe004 	addi	r2,r2,-128
  800c64:	10000826 	beq	r2,zero,800c88 <logic+0x7c4>
  800c68:	e0bffd17 	ldw	r2,-12(fp)
  800c6c:	10803743 	ldbu	r2,221(r2)
  800c70:	10803fcc 	andi	r2,r2,255
  800c74:	1080201c 	xori	r2,r2,128
  800c78:	10bfe004 	addi	r2,r2,-128
  800c7c:	10000226 	beq	r2,zero,800c88 <logic+0x7c4>
  800c80:	00800044 	movi	r2,1
  800c84:	00000106 	br	800c8c <logic+0x7c8>
  800c88:	0005883a 	mov	r2,zero
  800c8c:	1007883a 	mov	r3,r2
  800c90:	e0bffd17 	ldw	r2,-12(fp)
  800c94:	10c01945 	stb	r3,101(r2)
  d->_g9 = !d->_g19;
  800c98:	e0bffd17 	ldw	r2,-12(fp)
  800c9c:	108019c3 	ldbu	r2,103(r2)
  800ca0:	10803fcc 	andi	r2,r2,255
  800ca4:	1080201c 	xori	r2,r2,128
  800ca8:	10bfe004 	addi	r2,r2,-128
  800cac:	1005003a 	cmpeq	r2,r2,zero
  800cb0:	1007883a 	mov	r3,r2
  800cb4:	e0bffd17 	ldw	r2,-12(fp)
  800cb8:	10c01805 	stb	r3,96(r2)
  d->_g22 = d->_g19 && d->_cg19 || d->_g22;
  800cbc:	e0bffd17 	ldw	r2,-12(fp)
  800cc0:	108019c3 	ldbu	r2,103(r2)
  800cc4:	10803fcc 	andi	r2,r2,255
  800cc8:	1080201c 	xori	r2,r2,128
  800ccc:	10bfe004 	addi	r2,r2,-128
  800cd0:	10000626 	beq	r2,zero,800cec <logic+0x828>
  800cd4:	e0bffd17 	ldw	r2,-12(fp)
  800cd8:	10803843 	ldbu	r2,225(r2)
  800cdc:	10803fcc 	andi	r2,r2,255
  800ce0:	1080201c 	xori	r2,r2,128
  800ce4:	10bfe004 	addi	r2,r2,-128
  800ce8:	1000061e 	bne	r2,zero,800d04 <logic+0x840>
  800cec:	e0bffd17 	ldw	r2,-12(fp)
  800cf0:	10801a83 	ldbu	r2,106(r2)
  800cf4:	10803fcc 	andi	r2,r2,255
  800cf8:	1080201c 	xori	r2,r2,128
  800cfc:	10bfe004 	addi	r2,r2,-128
  800d00:	10000226 	beq	r2,zero,800d0c <logic+0x848>
  800d04:	00800044 	movi	r2,1
  800d08:	00000106 	br	800d10 <logic+0x84c>
  800d0c:	0005883a 	mov	r2,zero
  800d10:	1007883a 	mov	r3,r2
  800d14:	e0bffd17 	ldw	r2,-12(fp)
  800d18:	10c01a85 	stb	r3,106(r2)
  d->_g19 = (d->_g10_e1 || d->_g15) && (d->_g9 || d->_g22) && (d->_g15 || d->_g22);
  800d1c:	e0bffd17 	ldw	r2,-12(fp)
  800d20:	10804943 	ldbu	r2,293(r2)
  800d24:	10803fcc 	andi	r2,r2,255
  800d28:	1080201c 	xori	r2,r2,128
  800d2c:	10bfe004 	addi	r2,r2,-128
  800d30:	1000061e 	bne	r2,zero,800d4c <logic+0x888>
  800d34:	e0bffd17 	ldw	r2,-12(fp)
  800d38:	10801943 	ldbu	r2,101(r2)
  800d3c:	10803fcc 	andi	r2,r2,255
  800d40:	1080201c 	xori	r2,r2,128
  800d44:	10bfe004 	addi	r2,r2,-128
  800d48:	10001a26 	beq	r2,zero,800db4 <logic+0x8f0>
  800d4c:	e0bffd17 	ldw	r2,-12(fp)
  800d50:	10801803 	ldbu	r2,96(r2)
  800d54:	10803fcc 	andi	r2,r2,255
  800d58:	1080201c 	xori	r2,r2,128
  800d5c:	10bfe004 	addi	r2,r2,-128
  800d60:	1000061e 	bne	r2,zero,800d7c <logic+0x8b8>
  800d64:	e0bffd17 	ldw	r2,-12(fp)
  800d68:	10801a83 	ldbu	r2,106(r2)
  800d6c:	10803fcc 	andi	r2,r2,255
  800d70:	1080201c 	xori	r2,r2,128
  800d74:	10bfe004 	addi	r2,r2,-128
  800d78:	10000e26 	beq	r2,zero,800db4 <logic+0x8f0>
  800d7c:	e0bffd17 	ldw	r2,-12(fp)
  800d80:	10801943 	ldbu	r2,101(r2)
  800d84:	10803fcc 	andi	r2,r2,255
  800d88:	1080201c 	xori	r2,r2,128
  800d8c:	10bfe004 	addi	r2,r2,-128
  800d90:	1000061e 	bne	r2,zero,800dac <logic+0x8e8>
  800d94:	e0bffd17 	ldw	r2,-12(fp)
  800d98:	10801a83 	ldbu	r2,106(r2)
  800d9c:	10803fcc 	andi	r2,r2,255
  800da0:	1080201c 	xori	r2,r2,128
  800da4:	10bfe004 	addi	r2,r2,-128
  800da8:	10000226 	beq	r2,zero,800db4 <logic+0x8f0>
  800dac:	00800044 	movi	r2,1
  800db0:	00000106 	br	800db8 <logic+0x8f4>
  800db4:	0005883a 	mov	r2,zero
  800db8:	1007883a 	mov	r3,r2
  800dbc:	e0bffd17 	ldw	r2,-12(fp)
  800dc0:	10c019c5 	stb	r3,103(r2)
  d->_cg23 = d->VS || d->_pre_VP && !d->VRP_ACTIVE;
  800dc4:	e0bffd17 	ldw	r2,-12(fp)
  800dc8:	10800a43 	ldbu	r2,41(r2)
  800dcc:	10803fcc 	andi	r2,r2,255
  800dd0:	1080201c 	xori	r2,r2,128
  800dd4:	10bfe004 	addi	r2,r2,-128
  800dd8:	10000c1e 	bne	r2,zero,800e0c <logic+0x948>
  800ddc:	e0bffd17 	ldw	r2,-12(fp)
  800de0:	10800c43 	ldbu	r2,49(r2)
  800de4:	10803fcc 	andi	r2,r2,255
  800de8:	1080201c 	xori	r2,r2,128
  800dec:	10bfe004 	addi	r2,r2,-128
  800df0:	10000826 	beq	r2,zero,800e14 <logic+0x950>
  800df4:	e0bffd17 	ldw	r2,-12(fp)
  800df8:	10800a83 	ldbu	r2,42(r2)
  800dfc:	10803fcc 	andi	r2,r2,255
  800e00:	1080201c 	xori	r2,r2,128
  800e04:	10bfe004 	addi	r2,r2,-128
  800e08:	1000021e 	bne	r2,zero,800e14 <logic+0x950>
  800e0c:	00800044 	movi	r2,1
  800e10:	00000106 	br	800e18 <logic+0x954>
  800e14:	0005883a 	mov	r2,zero
  800e18:	1007883a 	mov	r3,r2
  800e1c:	e0bffd17 	ldw	r2,-12(fp)
  800e20:	10c03585 	stb	r3,214(r2)
  d->_g10_e1 = d->_g19 && !d->_cg23;
  800e24:	e0bffd17 	ldw	r2,-12(fp)
  800e28:	108019c3 	ldbu	r2,103(r2)
  800e2c:	10803fcc 	andi	r2,r2,255
  800e30:	1080201c 	xori	r2,r2,128
  800e34:	10bfe004 	addi	r2,r2,-128
  800e38:	10000826 	beq	r2,zero,800e5c <logic+0x998>
  800e3c:	e0bffd17 	ldw	r2,-12(fp)
  800e40:	10803583 	ldbu	r2,214(r2)
  800e44:	10803fcc 	andi	r2,r2,255
  800e48:	1080201c 	xori	r2,r2,128
  800e4c:	10bfe004 	addi	r2,r2,-128
  800e50:	1000021e 	bne	r2,zero,800e5c <logic+0x998>
  800e54:	00800044 	movi	r2,1
  800e58:	00000106 	br	800e60 <logic+0x99c>
  800e5c:	0005883a 	mov	r2,zero
  800e60:	1007883a 	mov	r3,r2
  800e64:	e0bffd17 	ldw	r2,-12(fp)
  800e68:	10c04945 	stb	r3,293(r2)
  if (d->_g10_e1) {
  800e6c:	e0bffd17 	ldw	r2,-12(fp)
  800e70:	10804943 	ldbu	r2,293(r2)
  800e74:	10803fcc 	andi	r2,r2,255
  800e78:	1080201c 	xori	r2,r2,128
  800e7c:	10bfe004 	addi	r2,r2,-128
  800e80:	10000626 	beq	r2,zero,800e9c <logic+0x9d8>
    d->VP |= 1;
  800e84:	e0bffd17 	ldw	r2,-12(fp)
  800e88:	10800bc3 	ldbu	r2,47(r2)
  800e8c:	10800054 	ori	r2,r2,1
  800e90:	1007883a 	mov	r3,r2
  800e94:	e0bffd17 	ldw	r2,-12(fp)
  800e98:	10c00bc5 	stb	r3,47(r2)
  }
  d->_g20 = d->_pg181_e2;
  800e9c:	e0bffd17 	ldw	r2,-12(fp)
  800ea0:	10c05143 	ldbu	r3,325(r2)
  800ea4:	e0bffd17 	ldw	r2,-12(fp)
  800ea8:	10c01a05 	stb	r3,104(r2)
  if (d->_g20) {
  800eac:	e0bffd17 	ldw	r2,-12(fp)
  800eb0:	10801a03 	ldbu	r2,104(r2)
  800eb4:	10803fcc 	andi	r2,r2,255
  800eb8:	1080201c 	xori	r2,r2,128
  800ebc:	10bfe004 	addi	r2,r2,-128
  800ec0:	10000626 	beq	r2,zero,800edc <logic+0xa18>
    d->PVARP_ACTIVE |= 1;
  800ec4:	e0bffd17 	ldw	r2,-12(fp)
  800ec8:	10800b03 	ldbu	r2,44(r2)
  800ecc:	10800054 	ori	r2,r2,1
  800ed0:	1007883a 	mov	r3,r2
  800ed4:	e0bffd17 	ldw	r2,-12(fp)
  800ed8:	10c00b05 	stb	r3,44(r2)
  }
  d->_g10 = d->_pg28;
  800edc:	e0bffd17 	ldw	r2,-12(fp)
  800ee0:	10c05183 	ldbu	r3,326(r2)
  800ee4:	e0bffd17 	ldw	r2,-12(fp)
  800ee8:	10c01845 	stb	r3,97(r2)
  d->_g20_e2 = d->_pg47;
  800eec:	e0bffd17 	ldw	r2,-12(fp)
  800ef0:	10c051c3 	ldbu	r3,327(r2)
  800ef4:	e0bffd17 	ldw	r2,-12(fp)
  800ef8:	10c04985 	stb	r3,294(r2)
  d->_g58_e1 = !(d->_g10 || d->_g20_e2);
  800efc:	e0bffd17 	ldw	r2,-12(fp)
  800f00:	10801843 	ldbu	r2,97(r2)
  800f04:	10803fcc 	andi	r2,r2,255
  800f08:	1080201c 	xori	r2,r2,128
  800f0c:	10bfe004 	addi	r2,r2,-128
  800f10:	1000081e 	bne	r2,zero,800f34 <logic+0xa70>
  800f14:	e0bffd17 	ldw	r2,-12(fp)
  800f18:	10804983 	ldbu	r2,294(r2)
  800f1c:	10803fcc 	andi	r2,r2,255
  800f20:	1080201c 	xori	r2,r2,128
  800f24:	10bfe004 	addi	r2,r2,-128
  800f28:	1000021e 	bne	r2,zero,800f34 <logic+0xa70>
  800f2c:	00800044 	movi	r2,1
  800f30:	00000106 	br	800f38 <logic+0xa74>
  800f34:	0005883a 	mov	r2,zero
  800f38:	1007883a 	mov	r3,r2
  800f3c:	e0bffd17 	ldw	r2,-12(fp)
  800f40:	10c04a85 	stb	r3,298(r2)
  d->_cg57 = d->AS && !d->PVARP_ACTIVE;
  800f44:	e0bffd17 	ldw	r2,-12(fp)
  800f48:	10800a03 	ldbu	r2,40(r2)
  800f4c:	10803fcc 	andi	r2,r2,255
  800f50:	1080201c 	xori	r2,r2,128
  800f54:	10bfe004 	addi	r2,r2,-128
  800f58:	10000826 	beq	r2,zero,800f7c <logic+0xab8>
  800f5c:	e0bffd17 	ldw	r2,-12(fp)
  800f60:	10800b03 	ldbu	r2,44(r2)
  800f64:	10803fcc 	andi	r2,r2,255
  800f68:	1080201c 	xori	r2,r2,128
  800f6c:	10bfe004 	addi	r2,r2,-128
  800f70:	1000021e 	bne	r2,zero,800f7c <logic+0xab8>
  800f74:	00800044 	movi	r2,1
  800f78:	00000106 	br	800f80 <logic+0xabc>
  800f7c:	0005883a 	mov	r2,zero
  800f80:	1007883a 	mov	r3,r2
  800f84:	e0bffd17 	ldw	r2,-12(fp)
  800f88:	10c03b45 	stb	r3,237(r2)
  d->_g206 = d->_pg164;
  800f8c:	e0bffd17 	ldw	r2,-12(fp)
  800f90:	10c05203 	ldbu	r3,328(r2)
  800f94:	e0bffd17 	ldw	r2,-12(fp)
  800f98:	10c03505 	stb	r3,212(r2)
  if (d->_g206) {
  800f9c:	e0bffd17 	ldw	r2,-12(fp)
  800fa0:	10803503 	ldbu	r2,212(r2)
  800fa4:	10803fcc 	andi	r2,r2,255
  800fa8:	1080201c 	xori	r2,r2,128
  800fac:	10bfe004 	addi	r2,r2,-128
  800fb0:	10001226 	beq	r2,zero,800ffc <logic+0xb38>
    d->_region2_null_x += d->deltaT;
  800fb4:	e13ffd17 	ldw	r4,-12(fp)
  800fb8:	20800417 	ldw	r2,16(r4)
  800fbc:	20c00517 	ldw	r3,20(r4)
  800fc0:	e1bffd17 	ldw	r6,-12(fp)
  800fc4:	31000617 	ldw	r4,24(r6)
  800fc8:	31400717 	ldw	r5,28(r6)
  800fcc:	200d883a 	mov	r6,r4
  800fd0:	280f883a 	mov	r7,r5
  800fd4:	1009883a 	mov	r4,r2
  800fd8:	180b883a 	mov	r5,r3
  800fdc:	0805c5c0 	call	805c5c <__adddf3>
  800fe0:	1009883a 	mov	r4,r2
  800fe4:	180b883a 	mov	r5,r3
  800fe8:	2005883a 	mov	r2,r4
  800fec:	2807883a 	mov	r3,r5
  800ff0:	e13ffd17 	ldw	r4,-12(fp)
  800ff4:	20800415 	stw	r2,16(r4)
  800ff8:	20c00515 	stw	r3,20(r4)
  }
  d->_g67 = d->_pg71;
  800ffc:	e0bffd17 	ldw	r2,-12(fp)
  801000:	10c05243 	ldbu	r3,329(r2)
  801004:	e0bffd17 	ldw	r2,-12(fp)
  801008:	10c02145 	stb	r3,133(r2)
  d->_cg67 = d->AS && !d->PVARP_ACTIVE;
  80100c:	e0bffd17 	ldw	r2,-12(fp)
  801010:	10800a03 	ldbu	r2,40(r2)
  801014:	10803fcc 	andi	r2,r2,255
  801018:	1080201c 	xori	r2,r2,128
  80101c:	10bfe004 	addi	r2,r2,-128
  801020:	10000826 	beq	r2,zero,801044 <logic+0xb80>
  801024:	e0bffd17 	ldw	r2,-12(fp)
  801028:	10800b03 	ldbu	r2,44(r2)
  80102c:	10803fcc 	andi	r2,r2,255
  801030:	1080201c 	xori	r2,r2,128
  801034:	10bfe004 	addi	r2,r2,-128
  801038:	1000021e 	bne	r2,zero,801044 <logic+0xb80>
  80103c:	00800044 	movi	r2,1
  801040:	00000106 	br	801048 <logic+0xb84>
  801044:	0005883a 	mov	r2,zero
  801048:	1007883a 	mov	r3,r2
  80104c:	e0bffd17 	ldw	r2,-12(fp)
  801050:	10c03cc5 	stb	r3,243(r2)
  d->_g69 = d->_g67 && !d->_cg67;
  801054:	e0bffd17 	ldw	r2,-12(fp)
  801058:	10802143 	ldbu	r2,133(r2)
  80105c:	10803fcc 	andi	r2,r2,255
  801060:	1080201c 	xori	r2,r2,128
  801064:	10bfe004 	addi	r2,r2,-128
  801068:	10000826 	beq	r2,zero,80108c <logic+0xbc8>
  80106c:	e0bffd17 	ldw	r2,-12(fp)
  801070:	10803cc3 	ldbu	r2,243(r2)
  801074:	10803fcc 	andi	r2,r2,255
  801078:	1080201c 	xori	r2,r2,128
  80107c:	10bfe004 	addi	r2,r2,-128
  801080:	1000021e 	bne	r2,zero,80108c <logic+0xbc8>
  801084:	00800044 	movi	r2,1
  801088:	00000106 	br	801090 <logic+0xbcc>
  80108c:	0005883a 	mov	r2,zero
  801090:	1007883a 	mov	r3,r2
  801094:	e0bffd17 	ldw	r2,-12(fp)
  801098:	10c021c5 	stb	r3,135(r2)
  d->_cg69 = d->_region2_null_x >= AEI_VALUE;
  80109c:	e13ffd17 	ldw	r4,-12(fp)
  8010a0:	20800417 	ldw	r2,16(r4)
  8010a4:	20c00517 	ldw	r3,20(r4)
  8010a8:	04000044 	movi	r16,1
  8010ac:	000d883a 	mov	r6,zero
  8010b0:	01d02274 	movhi	r7,16521
  8010b4:	1009883a 	mov	r4,r2
  8010b8:	180b883a 	mov	r5,r3
  8010bc:	08065080 	call	806508 <__gedf2>
  8010c0:	1000010e 	bge	r2,zero,8010c8 <logic+0xc04>
  8010c4:	0021883a 	mov	r16,zero
  8010c8:	8007883a 	mov	r3,r16
  8010cc:	e0bffd17 	ldw	r2,-12(fp)
  8010d0:	10c03c85 	stb	r3,242(r2)
  d->_g70 = d->_g69 && d->_cg69;
  8010d4:	e0bffd17 	ldw	r2,-12(fp)
  8010d8:	108021c3 	ldbu	r2,135(r2)
  8010dc:	10803fcc 	andi	r2,r2,255
  8010e0:	1080201c 	xori	r2,r2,128
  8010e4:	10bfe004 	addi	r2,r2,-128
  8010e8:	10000826 	beq	r2,zero,80110c <logic+0xc48>
  8010ec:	e0bffd17 	ldw	r2,-12(fp)
  8010f0:	10803c83 	ldbu	r2,242(r2)
  8010f4:	10803fcc 	andi	r2,r2,255
  8010f8:	1080201c 	xori	r2,r2,128
  8010fc:	10bfe004 	addi	r2,r2,-128
  801100:	10000226 	beq	r2,zero,80110c <logic+0xc48>
  801104:	00800044 	movi	r2,1
  801108:	00000106 	br	801110 <logic+0xc4c>
  80110c:	0005883a 	mov	r2,zero
  801110:	1007883a 	mov	r3,r2
  801114:	e0bffd17 	ldw	r2,-12(fp)
  801118:	10c02205 	stb	r3,136(r2)
  if (d->_g70) {
  80111c:	e0bffd17 	ldw	r2,-12(fp)
  801120:	10802203 	ldbu	r2,136(r2)
  801124:	10803fcc 	andi	r2,r2,255
  801128:	1080201c 	xori	r2,r2,128
  80112c:	10bfe004 	addi	r2,r2,-128
  801130:	10000326 	beq	r2,zero,801140 <logic+0xc7c>
    d->_pacemaker_local__Atrig2 = 1;
  801134:	e0bffd17 	ldw	r2,-12(fp)
  801138:	00c00044 	movi	r3,1
  80113c:	10c00dc5 	stb	r3,55(r2)
  }
  d->_cg63 = d->AS && !d->PVARP_ACTIVE;
  801140:	e0bffd17 	ldw	r2,-12(fp)
  801144:	10800a03 	ldbu	r2,40(r2)
  801148:	10803fcc 	andi	r2,r2,255
  80114c:	1080201c 	xori	r2,r2,128
  801150:	10bfe004 	addi	r2,r2,-128
  801154:	10000826 	beq	r2,zero,801178 <logic+0xcb4>
  801158:	e0bffd17 	ldw	r2,-12(fp)
  80115c:	10800b03 	ldbu	r2,44(r2)
  801160:	10803fcc 	andi	r2,r2,255
  801164:	1080201c 	xori	r2,r2,128
  801168:	10bfe004 	addi	r2,r2,-128
  80116c:	1000021e 	bne	r2,zero,801178 <logic+0xcb4>
  801170:	00800044 	movi	r2,1
  801174:	00000106 	br	80117c <logic+0xcb8>
  801178:	0005883a 	mov	r2,zero
  80117c:	1007883a 	mov	r3,r2
  801180:	e0bffd17 	ldw	r2,-12(fp)
  801184:	10c03bc5 	stb	r3,239(r2)
  d->_g59 = d->_g20_e2 && !d->_cg57 || d->_g10 && !d->_cg63;
  801188:	e0bffd17 	ldw	r2,-12(fp)
  80118c:	10804983 	ldbu	r2,294(r2)
  801190:	10803fcc 	andi	r2,r2,255
  801194:	1080201c 	xori	r2,r2,128
  801198:	10bfe004 	addi	r2,r2,-128
  80119c:	10000626 	beq	r2,zero,8011b8 <logic+0xcf4>
  8011a0:	e0bffd17 	ldw	r2,-12(fp)
  8011a4:	10803b43 	ldbu	r2,237(r2)
  8011a8:	10803fcc 	andi	r2,r2,255
  8011ac:	1080201c 	xori	r2,r2,128
  8011b0:	10bfe004 	addi	r2,r2,-128
  8011b4:	10000c26 	beq	r2,zero,8011e8 <logic+0xd24>
  8011b8:	e0bffd17 	ldw	r2,-12(fp)
  8011bc:	10801843 	ldbu	r2,97(r2)
  8011c0:	10803fcc 	andi	r2,r2,255
  8011c4:	1080201c 	xori	r2,r2,128
  8011c8:	10bfe004 	addi	r2,r2,-128
  8011cc:	10000826 	beq	r2,zero,8011f0 <logic+0xd2c>
  8011d0:	e0bffd17 	ldw	r2,-12(fp)
  8011d4:	10803bc3 	ldbu	r2,239(r2)
  8011d8:	10803fcc 	andi	r2,r2,255
  8011dc:	1080201c 	xori	r2,r2,128
  8011e0:	10bfe004 	addi	r2,r2,-128
  8011e4:	1000021e 	bne	r2,zero,8011f0 <logic+0xd2c>
  8011e8:	00800044 	movi	r2,1
  8011ec:	00000106 	br	8011f4 <logic+0xd30>
  8011f0:	0005883a 	mov	r2,zero
  8011f4:	1007883a 	mov	r3,r2
  8011f8:	e0bffd17 	ldw	r2,-12(fp)
  8011fc:	10c02005 	stb	r3,128(r2)
  d->_cg59 = d->_region2_null_x < AEI_VALUE;
  801200:	e13ffd17 	ldw	r4,-12(fp)
  801204:	20800417 	ldw	r2,16(r4)
  801208:	20c00517 	ldw	r3,20(r4)
  80120c:	04000044 	movi	r16,1
  801210:	000d883a 	mov	r6,zero
  801214:	01d02274 	movhi	r7,16521
  801218:	1009883a 	mov	r4,r2
  80121c:	180b883a 	mov	r5,r3
  801220:	08065e40 	call	8065e4 <__ledf2>
  801224:	10000116 	blt	r2,zero,80122c <logic+0xd68>
  801228:	0021883a 	mov	r16,zero
  80122c:	8007883a 	mov	r3,r16
  801230:	e0bffd17 	ldw	r2,-12(fp)
  801234:	10c03c05 	stb	r3,240(r2)
  d->_g60 = d->_g59 && d->_cg59;
  801238:	e0bffd17 	ldw	r2,-12(fp)
  80123c:	10802003 	ldbu	r2,128(r2)
  801240:	10803fcc 	andi	r2,r2,255
  801244:	1080201c 	xori	r2,r2,128
  801248:	10bfe004 	addi	r2,r2,-128
  80124c:	10000826 	beq	r2,zero,801270 <logic+0xdac>
  801250:	e0bffd17 	ldw	r2,-12(fp)
  801254:	10803c03 	ldbu	r2,240(r2)
  801258:	10803fcc 	andi	r2,r2,255
  80125c:	1080201c 	xori	r2,r2,128
  801260:	10bfe004 	addi	r2,r2,-128
  801264:	10000226 	beq	r2,zero,801270 <logic+0xdac>
  801268:	00800044 	movi	r2,1
  80126c:	00000106 	br	801274 <logic+0xdb0>
  801270:	0005883a 	mov	r2,zero
  801274:	1007883a 	mov	r3,r2
  801278:	e0bffd17 	ldw	r2,-12(fp)
  80127c:	10c02045 	stb	r3,129(r2)
  if (d->_g60) {
  801280:	e0bffd17 	ldw	r2,-12(fp)
  801284:	10802043 	ldbu	r2,129(r2)
  801288:	10803fcc 	andi	r2,r2,255
  80128c:	1080201c 	xori	r2,r2,128
  801290:	10bfe004 	addi	r2,r2,-128
  801294:	10002826 	beq	r2,zero,801338 <logic+0xe74>
    d->sleepT = (d->sleepT < (AEI_VALUE - d->_region2_null_x)) ? d->sleepT : (AEI_VALUE - d->_region2_null_x);
  801298:	e0bffd17 	ldw	r2,-12(fp)
  80129c:	14000817 	ldw	r16,32(r2)
  8012a0:	14400917 	ldw	r17,36(r2)
  8012a4:	e13ffd17 	ldw	r4,-12(fp)
  8012a8:	20800417 	ldw	r2,16(r4)
  8012ac:	20c00517 	ldw	r3,20(r4)
  8012b0:	100d883a 	mov	r6,r2
  8012b4:	180f883a 	mov	r7,r3
  8012b8:	0009883a 	mov	r4,zero
  8012bc:	01502274 	movhi	r5,16521
  8012c0:	0806df00 	call	806df0 <__subdf3>
  8012c4:	1009883a 	mov	r4,r2
  8012c8:	180b883a 	mov	r5,r3
  8012cc:	2005883a 	mov	r2,r4
  8012d0:	2807883a 	mov	r3,r5
  8012d4:	100d883a 	mov	r6,r2
  8012d8:	180f883a 	mov	r7,r3
  8012dc:	8009883a 	mov	r4,r16
  8012e0:	880b883a 	mov	r5,r17
  8012e4:	08065e40 	call	8065e4 <__ledf2>
  8012e8:	1000040e 	bge	r2,zero,8012fc <logic+0xe38>
  8012ec:	e13ffd17 	ldw	r4,-12(fp)
  8012f0:	20800817 	ldw	r2,32(r4)
  8012f4:	20c00917 	ldw	r3,36(r4)
  8012f8:	00000c06 	br	80132c <logic+0xe68>
  8012fc:	e13ffd17 	ldw	r4,-12(fp)
  801300:	20800417 	ldw	r2,16(r4)
  801304:	20c00517 	ldw	r3,20(r4)
  801308:	100d883a 	mov	r6,r2
  80130c:	180f883a 	mov	r7,r3
  801310:	0009883a 	mov	r4,zero
  801314:	01502274 	movhi	r5,16521
  801318:	0806df00 	call	806df0 <__subdf3>
  80131c:	1009883a 	mov	r4,r2
  801320:	180b883a 	mov	r5,r3
  801324:	2005883a 	mov	r2,r4
  801328:	2807883a 	mov	r3,r5
  80132c:	e13ffd17 	ldw	r4,-12(fp)
  801330:	20800815 	stw	r2,32(r4)
  801334:	20c00915 	stw	r3,36(r4)
  }
  d->_cg60 = d->_pacemaker_local__Atrig2;
  801338:	e0bffd17 	ldw	r2,-12(fp)
  80133c:	10c00dc3 	ldbu	r3,55(r2)
  801340:	e0bffd17 	ldw	r2,-12(fp)
  801344:	10c03b05 	stb	r3,236(r2)
  d->_g59 = d->_g59 && !d->_cg59;
  801348:	e0bffd17 	ldw	r2,-12(fp)
  80134c:	10802003 	ldbu	r2,128(r2)
  801350:	10803fcc 	andi	r2,r2,255
  801354:	1080201c 	xori	r2,r2,128
  801358:	10bfe004 	addi	r2,r2,-128
  80135c:	10000826 	beq	r2,zero,801380 <logic+0xebc>
  801360:	e0bffd17 	ldw	r2,-12(fp)
  801364:	10803c03 	ldbu	r2,240(r2)
  801368:	10803fcc 	andi	r2,r2,255
  80136c:	1080201c 	xori	r2,r2,128
  801370:	10bfe004 	addi	r2,r2,-128
  801374:	1000021e 	bne	r2,zero,801380 <logic+0xebc>
  801378:	00800044 	movi	r2,1
  80137c:	00000106 	br	801384 <logic+0xec0>
  801380:	0005883a 	mov	r2,zero
  801384:	1007883a 	mov	r3,r2
  801388:	e0bffd17 	ldw	r2,-12(fp)
  80138c:	10c02005 	stb	r3,128(r2)
  d->_cg61 = d->_pacemaker_local__Atrig2;
  801390:	e0bffd17 	ldw	r2,-12(fp)
  801394:	10c00dc3 	ldbu	r3,55(r2)
  801398:	e0bffd17 	ldw	r2,-12(fp)
  80139c:	10c03b85 	stb	r3,238(r2)
  d->_g63 = d->_g20_e2 && d->_cg57 || d->_g60 && d->_cg60 || d->_g59 && d->_cg61 || d->_g10 && d->_cg63;
  8013a0:	e0bffd17 	ldw	r2,-12(fp)
  8013a4:	10804983 	ldbu	r2,294(r2)
  8013a8:	10803fcc 	andi	r2,r2,255
  8013ac:	1080201c 	xori	r2,r2,128
  8013b0:	10bfe004 	addi	r2,r2,-128
  8013b4:	10000626 	beq	r2,zero,8013d0 <logic+0xf0c>
  8013b8:	e0bffd17 	ldw	r2,-12(fp)
  8013bc:	10803b43 	ldbu	r2,237(r2)
  8013c0:	10803fcc 	andi	r2,r2,255
  8013c4:	1080201c 	xori	r2,r2,128
  8013c8:	10bfe004 	addi	r2,r2,-128
  8013cc:	1000241e 	bne	r2,zero,801460 <logic+0xf9c>
  8013d0:	e0bffd17 	ldw	r2,-12(fp)
  8013d4:	10802043 	ldbu	r2,129(r2)
  8013d8:	10803fcc 	andi	r2,r2,255
  8013dc:	1080201c 	xori	r2,r2,128
  8013e0:	10bfe004 	addi	r2,r2,-128
  8013e4:	10000626 	beq	r2,zero,801400 <logic+0xf3c>
  8013e8:	e0bffd17 	ldw	r2,-12(fp)
  8013ec:	10803b03 	ldbu	r2,236(r2)
  8013f0:	10803fcc 	andi	r2,r2,255
  8013f4:	1080201c 	xori	r2,r2,128
  8013f8:	10bfe004 	addi	r2,r2,-128
  8013fc:	1000181e 	bne	r2,zero,801460 <logic+0xf9c>
  801400:	e0bffd17 	ldw	r2,-12(fp)
  801404:	10802003 	ldbu	r2,128(r2)
  801408:	10803fcc 	andi	r2,r2,255
  80140c:	1080201c 	xori	r2,r2,128
  801410:	10bfe004 	addi	r2,r2,-128
  801414:	10000626 	beq	r2,zero,801430 <logic+0xf6c>
  801418:	e0bffd17 	ldw	r2,-12(fp)
  80141c:	10803b83 	ldbu	r2,238(r2)
  801420:	10803fcc 	andi	r2,r2,255
  801424:	1080201c 	xori	r2,r2,128
  801428:	10bfe004 	addi	r2,r2,-128
  80142c:	10000c1e 	bne	r2,zero,801460 <logic+0xf9c>
  801430:	e0bffd17 	ldw	r2,-12(fp)
  801434:	10801843 	ldbu	r2,97(r2)
  801438:	10803fcc 	andi	r2,r2,255
  80143c:	1080201c 	xori	r2,r2,128
  801440:	10bfe004 	addi	r2,r2,-128
  801444:	10000826 	beq	r2,zero,801468 <logic+0xfa4>
  801448:	e0bffd17 	ldw	r2,-12(fp)
  80144c:	10803bc3 	ldbu	r2,239(r2)
  801450:	10803fcc 	andi	r2,r2,255
  801454:	1080201c 	xori	r2,r2,128
  801458:	10bfe004 	addi	r2,r2,-128
  80145c:	10000226 	beq	r2,zero,801468 <logic+0xfa4>
  801460:	00800044 	movi	r2,1
  801464:	00000106 	br	80146c <logic+0xfa8>
  801468:	0005883a 	mov	r2,zero
  80146c:	1007883a 	mov	r3,r2
  801470:	e0bffd17 	ldw	r2,-12(fp)
  801474:	10c020c5 	stb	r3,131(r2)
  d->_g57 = !d->_g67;
  801478:	e0bffd17 	ldw	r2,-12(fp)
  80147c:	10802143 	ldbu	r2,133(r2)
  801480:	10803fcc 	andi	r2,r2,255
  801484:	1080201c 	xori	r2,r2,128
  801488:	10bfe004 	addi	r2,r2,-128
  80148c:	1005003a 	cmpeq	r2,r2,zero
  801490:	1007883a 	mov	r3,r2
  801494:	e0bffd17 	ldw	r2,-12(fp)
  801498:	10c01f85 	stb	r3,126(r2)
  d->_g67 = d->_g67 && d->_cg67 || d->_g70;
  80149c:	e0bffd17 	ldw	r2,-12(fp)
  8014a0:	10802143 	ldbu	r2,133(r2)
  8014a4:	10803fcc 	andi	r2,r2,255
  8014a8:	1080201c 	xori	r2,r2,128
  8014ac:	10bfe004 	addi	r2,r2,-128
  8014b0:	10000626 	beq	r2,zero,8014cc <logic+0x1008>
  8014b4:	e0bffd17 	ldw	r2,-12(fp)
  8014b8:	10803cc3 	ldbu	r2,243(r2)
  8014bc:	10803fcc 	andi	r2,r2,255
  8014c0:	1080201c 	xori	r2,r2,128
  8014c4:	10bfe004 	addi	r2,r2,-128
  8014c8:	1000061e 	bne	r2,zero,8014e4 <logic+0x1020>
  8014cc:	e0bffd17 	ldw	r2,-12(fp)
  8014d0:	10802203 	ldbu	r2,136(r2)
  8014d4:	10803fcc 	andi	r2,r2,255
  8014d8:	1080201c 	xori	r2,r2,128
  8014dc:	10bfe004 	addi	r2,r2,-128
  8014e0:	10000226 	beq	r2,zero,8014ec <logic+0x1028>
  8014e4:	00800044 	movi	r2,1
  8014e8:	00000106 	br	8014f0 <logic+0x102c>
  8014ec:	0005883a 	mov	r2,zero
  8014f0:	1007883a 	mov	r3,r2
  8014f4:	e0bffd17 	ldw	r2,-12(fp)
  8014f8:	10c02145 	stb	r3,133(r2)
  d->_g70 = (d->_g58_e1 || d->_g63) && (d->_g57 || d->_g67) && (d->_g63 || d->_g67);
  8014fc:	e0bffd17 	ldw	r2,-12(fp)
  801500:	10804a83 	ldbu	r2,298(r2)
  801504:	10803fcc 	andi	r2,r2,255
  801508:	1080201c 	xori	r2,r2,128
  80150c:	10bfe004 	addi	r2,r2,-128
  801510:	1000061e 	bne	r2,zero,80152c <logic+0x1068>
  801514:	e0bffd17 	ldw	r2,-12(fp)
  801518:	108020c3 	ldbu	r2,131(r2)
  80151c:	10803fcc 	andi	r2,r2,255
  801520:	1080201c 	xori	r2,r2,128
  801524:	10bfe004 	addi	r2,r2,-128
  801528:	10001a26 	beq	r2,zero,801594 <logic+0x10d0>
  80152c:	e0bffd17 	ldw	r2,-12(fp)
  801530:	10801f83 	ldbu	r2,126(r2)
  801534:	10803fcc 	andi	r2,r2,255
  801538:	1080201c 	xori	r2,r2,128
  80153c:	10bfe004 	addi	r2,r2,-128
  801540:	1000061e 	bne	r2,zero,80155c <logic+0x1098>
  801544:	e0bffd17 	ldw	r2,-12(fp)
  801548:	10802143 	ldbu	r2,133(r2)
  80154c:	10803fcc 	andi	r2,r2,255
  801550:	1080201c 	xori	r2,r2,128
  801554:	10bfe004 	addi	r2,r2,-128
  801558:	10000e26 	beq	r2,zero,801594 <logic+0x10d0>
  80155c:	e0bffd17 	ldw	r2,-12(fp)
  801560:	108020c3 	ldbu	r2,131(r2)
  801564:	10803fcc 	andi	r2,r2,255
  801568:	1080201c 	xori	r2,r2,128
  80156c:	10bfe004 	addi	r2,r2,-128
  801570:	1000061e 	bne	r2,zero,80158c <logic+0x10c8>
  801574:	e0bffd17 	ldw	r2,-12(fp)
  801578:	10802143 	ldbu	r2,133(r2)
  80157c:	10803fcc 	andi	r2,r2,255
  801580:	1080201c 	xori	r2,r2,128
  801584:	10bfe004 	addi	r2,r2,-128
  801588:	10000226 	beq	r2,zero,801594 <logic+0x10d0>
  80158c:	00800044 	movi	r2,1
  801590:	00000106 	br	801598 <logic+0x10d4>
  801594:	0005883a 	mov	r2,zero
  801598:	1007883a 	mov	r3,r2
  80159c:	e0bffd17 	ldw	r2,-12(fp)
  8015a0:	10c02205 	stb	r3,136(r2)
  d->_cg71 = d->AS && !d->PVARP_ACTIVE;
  8015a4:	e0bffd17 	ldw	r2,-12(fp)
  8015a8:	10800a03 	ldbu	r2,40(r2)
  8015ac:	10803fcc 	andi	r2,r2,255
  8015b0:	1080201c 	xori	r2,r2,128
  8015b4:	10bfe004 	addi	r2,r2,-128
  8015b8:	10000826 	beq	r2,zero,8015dc <logic+0x1118>
  8015bc:	e0bffd17 	ldw	r2,-12(fp)
  8015c0:	10800b03 	ldbu	r2,44(r2)
  8015c4:	10803fcc 	andi	r2,r2,255
  8015c8:	1080201c 	xori	r2,r2,128
  8015cc:	10bfe004 	addi	r2,r2,-128
  8015d0:	1000021e 	bne	r2,zero,8015dc <logic+0x1118>
  8015d4:	00800044 	movi	r2,1
  8015d8:	00000106 	br	8015e0 <logic+0x111c>
  8015dc:	0005883a 	mov	r2,zero
  8015e0:	1007883a 	mov	r3,r2
  8015e4:	e0bffd17 	ldw	r2,-12(fp)
  8015e8:	10c03a05 	stb	r3,232(r2)
  d->_g58_e1 = d->_g70 && !d->_cg71;
  8015ec:	e0bffd17 	ldw	r2,-12(fp)
  8015f0:	10802203 	ldbu	r2,136(r2)
  8015f4:	10803fcc 	andi	r2,r2,255
  8015f8:	1080201c 	xori	r2,r2,128
  8015fc:	10bfe004 	addi	r2,r2,-128
  801600:	10000826 	beq	r2,zero,801624 <logic+0x1160>
  801604:	e0bffd17 	ldw	r2,-12(fp)
  801608:	10803a03 	ldbu	r2,232(r2)
  80160c:	10803fcc 	andi	r2,r2,255
  801610:	1080201c 	xori	r2,r2,128
  801614:	10bfe004 	addi	r2,r2,-128
  801618:	1000021e 	bne	r2,zero,801624 <logic+0x1160>
  80161c:	00800044 	movi	r2,1
  801620:	00000106 	br	801628 <logic+0x1164>
  801624:	0005883a 	mov	r2,zero
  801628:	1007883a 	mov	r3,r2
  80162c:	e0bffd17 	ldw	r2,-12(fp)
  801630:	10c04a85 	stb	r3,298(r2)
  if (d->_g58_e1) {
  801634:	e0bffd17 	ldw	r2,-12(fp)
  801638:	10804a83 	ldbu	r2,298(r2)
  80163c:	10803fcc 	andi	r2,r2,255
  801640:	1080201c 	xori	r2,r2,128
  801644:	10bfe004 	addi	r2,r2,-128
  801648:	10000626 	beq	r2,zero,801664 <logic+0x11a0>
    d->AP |= 1;
  80164c:	e0bffd17 	ldw	r2,-12(fp)
  801650:	10800b83 	ldbu	r2,46(r2)
  801654:	10800054 	ori	r2,r2,1
  801658:	1007883a 	mov	r3,r2
  80165c:	e0bffd17 	ldw	r2,-12(fp)
  801660:	10c00b85 	stb	r3,46(r2)
  }
  d->_g68_e2 = d->_pg68;
  801664:	e0bffd17 	ldw	r2,-12(fp)
  801668:	10c05283 	ldbu	r3,330(r2)
  80166c:	e0bffd17 	ldw	r2,-12(fp)
  801670:	10c04ac5 	stb	r3,299(r2)
  d->_cg4 = d->AS || d->AP;
  801674:	e0bffd17 	ldw	r2,-12(fp)
  801678:	10800a03 	ldbu	r2,40(r2)
  80167c:	10803fcc 	andi	r2,r2,255
  801680:	1080201c 	xori	r2,r2,128
  801684:	10bfe004 	addi	r2,r2,-128
  801688:	1000061e 	bne	r2,zero,8016a4 <logic+0x11e0>
  80168c:	e0bffd17 	ldw	r2,-12(fp)
  801690:	10800b83 	ldbu	r2,46(r2)
  801694:	10803fcc 	andi	r2,r2,255
  801698:	1080201c 	xori	r2,r2,128
  80169c:	10bfe004 	addi	r2,r2,-128
  8016a0:	10000226 	beq	r2,zero,8016ac <logic+0x11e8>
  8016a4:	00800044 	movi	r2,1
  8016a8:	00000106 	br	8016b0 <logic+0x11ec>
  8016ac:	0005883a 	mov	r2,zero
  8016b0:	1007883a 	mov	r3,r2
  8016b4:	e0bffd17 	ldw	r2,-12(fp)
  8016b8:	10c035c5 	stb	r3,215(r2)
  d->_g68 = d->_GO || d->_g19 && d->_cg23 || d->_g10_e1 || d->_g68_e2 && !d->_cg4;
  8016bc:	e0bffd17 	ldw	r2,-12(fp)
  8016c0:	10803543 	ldbu	r2,213(r2)
  8016c4:	10803fcc 	andi	r2,r2,255
  8016c8:	1080201c 	xori	r2,r2,128
  8016cc:	10bfe004 	addi	r2,r2,-128
  8016d0:	10001e1e 	bne	r2,zero,80174c <logic+0x1288>
  8016d4:	e0bffd17 	ldw	r2,-12(fp)
  8016d8:	108019c3 	ldbu	r2,103(r2)
  8016dc:	10803fcc 	andi	r2,r2,255
  8016e0:	1080201c 	xori	r2,r2,128
  8016e4:	10bfe004 	addi	r2,r2,-128
  8016e8:	10000626 	beq	r2,zero,801704 <logic+0x1240>
  8016ec:	e0bffd17 	ldw	r2,-12(fp)
  8016f0:	10803583 	ldbu	r2,214(r2)
  8016f4:	10803fcc 	andi	r2,r2,255
  8016f8:	1080201c 	xori	r2,r2,128
  8016fc:	10bfe004 	addi	r2,r2,-128
  801700:	1000121e 	bne	r2,zero,80174c <logic+0x1288>
  801704:	e0bffd17 	ldw	r2,-12(fp)
  801708:	10804943 	ldbu	r2,293(r2)
  80170c:	10803fcc 	andi	r2,r2,255
  801710:	1080201c 	xori	r2,r2,128
  801714:	10bfe004 	addi	r2,r2,-128
  801718:	10000c1e 	bne	r2,zero,80174c <logic+0x1288>
  80171c:	e0bffd17 	ldw	r2,-12(fp)
  801720:	10804ac3 	ldbu	r2,299(r2)
  801724:	10803fcc 	andi	r2,r2,255
  801728:	1080201c 	xori	r2,r2,128
  80172c:	10bfe004 	addi	r2,r2,-128
  801730:	10000826 	beq	r2,zero,801754 <logic+0x1290>
  801734:	e0bffd17 	ldw	r2,-12(fp)
  801738:	108035c3 	ldbu	r2,215(r2)
  80173c:	10803fcc 	andi	r2,r2,255
  801740:	1080201c 	xori	r2,r2,128
  801744:	10bfe004 	addi	r2,r2,-128
  801748:	1000021e 	bne	r2,zero,801754 <logic+0x1290>
  80174c:	00800044 	movi	r2,1
  801750:	00000106 	br	801758 <logic+0x1294>
  801754:	0005883a 	mov	r2,zero
  801758:	1007883a 	mov	r3,r2
  80175c:	e0bffd17 	ldw	r2,-12(fp)
  801760:	10c02185 	stb	r3,134(r2)
  d->_g58 = d->_g68_e2 && d->_cg4;
  801764:	e0bffd17 	ldw	r2,-12(fp)
  801768:	10804ac3 	ldbu	r2,299(r2)
  80176c:	10803fcc 	andi	r2,r2,255
  801770:	1080201c 	xori	r2,r2,128
  801774:	10bfe004 	addi	r2,r2,-128
  801778:	10000826 	beq	r2,zero,80179c <logic+0x12d8>
  80177c:	e0bffd17 	ldw	r2,-12(fp)
  801780:	108035c3 	ldbu	r2,215(r2)
  801784:	10803fcc 	andi	r2,r2,255
  801788:	1080201c 	xori	r2,r2,128
  80178c:	10bfe004 	addi	r2,r2,-128
  801790:	10000226 	beq	r2,zero,80179c <logic+0x12d8>
  801794:	00800044 	movi	r2,1
  801798:	00000106 	br	8017a0 <logic+0x12dc>
  80179c:	0005883a 	mov	r2,zero
  8017a0:	1007883a 	mov	r3,r2
  8017a4:	e0bffd17 	ldw	r2,-12(fp)
  8017a8:	10c01fc5 	stb	r3,127(r2)
  if (d->_g58) {
  8017ac:	e0bffd17 	ldw	r2,-12(fp)
  8017b0:	10801fc3 	ldbu	r2,127(r2)
  8017b4:	10803fcc 	andi	r2,r2,255
  8017b8:	1080201c 	xori	r2,r2,128
  8017bc:	10bfe004 	addi	r2,r2,-128
  8017c0:	10000526 	beq	r2,zero,8017d8 <logic+0x1314>
    d->_region0_null_x = 0;
  8017c4:	e0bffd17 	ldw	r2,-12(fp)
  8017c8:	10000015 	stw	zero,0(r2)
  8017cc:	10000115 	stw	zero,4(r2)
    d->_pacemaker_local__Atrig = 0;
  8017d0:	e0bffd17 	ldw	r2,-12(fp)
  8017d4:	10000d45 	stb	zero,53(r2)
  }
  d->_cg6 = d->_region0_null_x < AVI_VALUE;
  8017d8:	e13ffd17 	ldw	r4,-12(fp)
  8017dc:	20800017 	ldw	r2,0(r4)
  8017e0:	20c00117 	ldw	r3,4(r4)
  8017e4:	04000044 	movi	r16,1
  8017e8:	000d883a 	mov	r6,zero
  8017ec:	01d01cf4 	movhi	r7,16499
  8017f0:	39f00004 	addi	r7,r7,-16384
  8017f4:	1009883a 	mov	r4,r2
  8017f8:	180b883a 	mov	r5,r3
  8017fc:	08065e40 	call	8065e4 <__ledf2>
  801800:	10000116 	blt	r2,zero,801808 <logic+0x1344>
  801804:	0021883a 	mov	r16,zero
  801808:	8007883a 	mov	r3,r16
  80180c:	e0bffd17 	ldw	r2,-12(fp)
  801810:	10c03605 	stb	r3,216(r2)
  d->_g23 = d->_g58 && d->_cg6;
  801814:	e0bffd17 	ldw	r2,-12(fp)
  801818:	10801fc3 	ldbu	r2,127(r2)
  80181c:	10803fcc 	andi	r2,r2,255
  801820:	1080201c 	xori	r2,r2,128
  801824:	10bfe004 	addi	r2,r2,-128
  801828:	10000826 	beq	r2,zero,80184c <logic+0x1388>
  80182c:	e0bffd17 	ldw	r2,-12(fp)
  801830:	10803603 	ldbu	r2,216(r2)
  801834:	10803fcc 	andi	r2,r2,255
  801838:	1080201c 	xori	r2,r2,128
  80183c:	10bfe004 	addi	r2,r2,-128
  801840:	10000226 	beq	r2,zero,80184c <logic+0x1388>
  801844:	00800044 	movi	r2,1
  801848:	00000106 	br	801850 <logic+0x138c>
  80184c:	0005883a 	mov	r2,zero
  801850:	1007883a 	mov	r3,r2
  801854:	e0bffd17 	ldw	r2,-12(fp)
  801858:	10c01ac5 	stb	r3,107(r2)
  if (d->_g23) {
  80185c:	e0bffd17 	ldw	r2,-12(fp)
  801860:	10801ac3 	ldbu	r2,107(r2)
  801864:	10803fcc 	andi	r2,r2,255
  801868:	1080201c 	xori	r2,r2,128
  80186c:	10bfe004 	addi	r2,r2,-128
  801870:	10002a26 	beq	r2,zero,80191c <logic+0x1458>
    d->sleepT = (d->sleepT < (AVI_VALUE - d->_region0_null_x)) ? d->sleepT : (AVI_VALUE - d->_region0_null_x);
  801874:	e0bffd17 	ldw	r2,-12(fp)
  801878:	14000817 	ldw	r16,32(r2)
  80187c:	14400917 	ldw	r17,36(r2)
  801880:	e13ffd17 	ldw	r4,-12(fp)
  801884:	20800017 	ldw	r2,0(r4)
  801888:	20c00117 	ldw	r3,4(r4)
  80188c:	100d883a 	mov	r6,r2
  801890:	180f883a 	mov	r7,r3
  801894:	0009883a 	mov	r4,zero
  801898:	01501cf4 	movhi	r5,16499
  80189c:	29700004 	addi	r5,r5,-16384
  8018a0:	0806df00 	call	806df0 <__subdf3>
  8018a4:	1009883a 	mov	r4,r2
  8018a8:	180b883a 	mov	r5,r3
  8018ac:	2005883a 	mov	r2,r4
  8018b0:	2807883a 	mov	r3,r5
  8018b4:	100d883a 	mov	r6,r2
  8018b8:	180f883a 	mov	r7,r3
  8018bc:	8009883a 	mov	r4,r16
  8018c0:	880b883a 	mov	r5,r17
  8018c4:	08065e40 	call	8065e4 <__ledf2>
  8018c8:	1000040e 	bge	r2,zero,8018dc <logic+0x1418>
  8018cc:	e13ffd17 	ldw	r4,-12(fp)
  8018d0:	20800817 	ldw	r2,32(r4)
  8018d4:	20c00917 	ldw	r3,36(r4)
  8018d8:	00000d06 	br	801910 <logic+0x144c>
  8018dc:	e13ffd17 	ldw	r4,-12(fp)
  8018e0:	20800017 	ldw	r2,0(r4)
  8018e4:	20c00117 	ldw	r3,4(r4)
  8018e8:	100d883a 	mov	r6,r2
  8018ec:	180f883a 	mov	r7,r3
  8018f0:	0009883a 	mov	r4,zero
  8018f4:	01501cf4 	movhi	r5,16499
  8018f8:	29700004 	addi	r5,r5,-16384
  8018fc:	0806df00 	call	806df0 <__subdf3>
  801900:	1009883a 	mov	r4,r2
  801904:	180b883a 	mov	r5,r3
  801908:	2005883a 	mov	r2,r4
  80190c:	2807883a 	mov	r3,r5
  801910:	e13ffd17 	ldw	r4,-12(fp)
  801914:	20800815 	stw	r2,32(r4)
  801918:	20c00915 	stw	r3,36(r4)
  }
  d->_cg7 = d->_pacemaker_local__Atrig;
  80191c:	e0bffd17 	ldw	r2,-12(fp)
  801920:	10c00d43 	ldbu	r3,53(r2)
  801924:	e0bffd17 	ldw	r2,-12(fp)
  801928:	10c03645 	stb	r3,217(r2)
  d->_g24 = d->_g23 && !d->_cg7 || d->_g12 && !d->_cg12;
  80192c:	e0bffd17 	ldw	r2,-12(fp)
  801930:	10801ac3 	ldbu	r2,107(r2)
  801934:	10803fcc 	andi	r2,r2,255
  801938:	1080201c 	xori	r2,r2,128
  80193c:	10bfe004 	addi	r2,r2,-128
  801940:	10000626 	beq	r2,zero,80195c <logic+0x1498>
  801944:	e0bffd17 	ldw	r2,-12(fp)
  801948:	10803643 	ldbu	r2,217(r2)
  80194c:	10803fcc 	andi	r2,r2,255
  801950:	1080201c 	xori	r2,r2,128
  801954:	10bfe004 	addi	r2,r2,-128
  801958:	10000c26 	beq	r2,zero,80198c <logic+0x14c8>
  80195c:	e0bffd17 	ldw	r2,-12(fp)
  801960:	108018c3 	ldbu	r2,99(r2)
  801964:	10803fcc 	andi	r2,r2,255
  801968:	1080201c 	xori	r2,r2,128
  80196c:	10bfe004 	addi	r2,r2,-128
  801970:	10000826 	beq	r2,zero,801994 <logic+0x14d0>
  801974:	e0bffd17 	ldw	r2,-12(fp)
  801978:	10803683 	ldbu	r2,218(r2)
  80197c:	10803fcc 	andi	r2,r2,255
  801980:	1080201c 	xori	r2,r2,128
  801984:	10bfe004 	addi	r2,r2,-128
  801988:	1000021e 	bne	r2,zero,801994 <logic+0x14d0>
  80198c:	00800044 	movi	r2,1
  801990:	00000106 	br	801998 <logic+0x14d4>
  801994:	0005883a 	mov	r2,zero
  801998:	1007883a 	mov	r3,r2
  80199c:	e0bffd17 	ldw	r2,-12(fp)
  8019a0:	10c01b05 	stb	r3,108(r2)
  d->_g4 = d->_g58 && !d->_cg6;
  8019a4:	e0bffd17 	ldw	r2,-12(fp)
  8019a8:	10801fc3 	ldbu	r2,127(r2)
  8019ac:	10803fcc 	andi	r2,r2,255
  8019b0:	1080201c 	xori	r2,r2,128
  8019b4:	10bfe004 	addi	r2,r2,-128
  8019b8:	10000826 	beq	r2,zero,8019dc <logic+0x1518>
  8019bc:	e0bffd17 	ldw	r2,-12(fp)
  8019c0:	10803603 	ldbu	r2,216(r2)
  8019c4:	10803fcc 	andi	r2,r2,255
  8019c8:	1080201c 	xori	r2,r2,128
  8019cc:	10bfe004 	addi	r2,r2,-128
  8019d0:	1000021e 	bne	r2,zero,8019dc <logic+0x1518>
  8019d4:	00800044 	movi	r2,1
  8019d8:	00000106 	br	8019e0 <logic+0x151c>
  8019dc:	0005883a 	mov	r2,zero
  8019e0:	1007883a 	mov	r3,r2
  8019e4:	e0bffd17 	ldw	r2,-12(fp)
  8019e8:	10c01745 	stb	r3,93(r2)
  d->_cg16 = d->_pacemaker_local__Atrig;
  8019ec:	e0bffd17 	ldw	r2,-12(fp)
  8019f0:	10c00d43 	ldbu	r3,53(r2)
  8019f4:	e0bffd17 	ldw	r2,-12(fp)
  8019f8:	10c037c5 	stb	r3,223(r2)
  d->_g12 = d->_g11 && !d->_cg13 || d->_g4 && !d->_cg16;
  8019fc:	e0bffd17 	ldw	r2,-12(fp)
  801a00:	10801883 	ldbu	r2,98(r2)
  801a04:	10803fcc 	andi	r2,r2,255
  801a08:	1080201c 	xori	r2,r2,128
  801a0c:	10bfe004 	addi	r2,r2,-128
  801a10:	10000626 	beq	r2,zero,801a2c <logic+0x1568>
  801a14:	e0bffd17 	ldw	r2,-12(fp)
  801a18:	10803703 	ldbu	r2,220(r2)
  801a1c:	10803fcc 	andi	r2,r2,255
  801a20:	1080201c 	xori	r2,r2,128
  801a24:	10bfe004 	addi	r2,r2,-128
  801a28:	10000c26 	beq	r2,zero,801a5c <logic+0x1598>
  801a2c:	e0bffd17 	ldw	r2,-12(fp)
  801a30:	10801743 	ldbu	r2,93(r2)
  801a34:	10803fcc 	andi	r2,r2,255
  801a38:	1080201c 	xori	r2,r2,128
  801a3c:	10bfe004 	addi	r2,r2,-128
  801a40:	10000826 	beq	r2,zero,801a64 <logic+0x15a0>
  801a44:	e0bffd17 	ldw	r2,-12(fp)
  801a48:	108037c3 	ldbu	r2,223(r2)
  801a4c:	10803fcc 	andi	r2,r2,255
  801a50:	1080201c 	xori	r2,r2,128
  801a54:	10bfe004 	addi	r2,r2,-128
  801a58:	1000021e 	bne	r2,zero,801a64 <logic+0x15a0>
  801a5c:	00800044 	movi	r2,1
  801a60:	00000106 	br	801a68 <logic+0x15a4>
  801a64:	0005883a 	mov	r2,zero
  801a68:	1007883a 	mov	r3,r2
  801a6c:	e0bffd17 	ldw	r2,-12(fp)
  801a70:	10c018c5 	stb	r3,99(r2)
  d->_g7 = d->_g58 || d->_g21 && !d->_cg21;
  801a74:	e0bffd17 	ldw	r2,-12(fp)
  801a78:	10801fc3 	ldbu	r2,127(r2)
  801a7c:	10803fcc 	andi	r2,r2,255
  801a80:	1080201c 	xori	r2,r2,128
  801a84:	10bfe004 	addi	r2,r2,-128
  801a88:	10000c1e 	bne	r2,zero,801abc <logic+0x15f8>
  801a8c:	e0bffd17 	ldw	r2,-12(fp)
  801a90:	10801a43 	ldbu	r2,105(r2)
  801a94:	10803fcc 	andi	r2,r2,255
  801a98:	1080201c 	xori	r2,r2,128
  801a9c:	10bfe004 	addi	r2,r2,-128
  801aa0:	10000826 	beq	r2,zero,801ac4 <logic+0x1600>
  801aa4:	e0bffd17 	ldw	r2,-12(fp)
  801aa8:	10803803 	ldbu	r2,224(r2)
  801aac:	10803fcc 	andi	r2,r2,255
  801ab0:	1080201c 	xori	r2,r2,128
  801ab4:	10bfe004 	addi	r2,r2,-128
  801ab8:	1000021e 	bne	r2,zero,801ac4 <logic+0x1600>
  801abc:	00800044 	movi	r2,1
  801ac0:	00000106 	br	801ac8 <logic+0x1604>
  801ac4:	0005883a 	mov	r2,zero
  801ac8:	1007883a 	mov	r3,r2
  801acc:	e0bffd17 	ldw	r2,-12(fp)
  801ad0:	10c017c5 	stb	r3,95(r2)
  d->_g16 = d->_pg157;
  801ad4:	e0bffd17 	ldw	r2,-12(fp)
  801ad8:	10c052c3 	ldbu	r3,331(r2)
  801adc:	e0bffd17 	ldw	r2,-12(fp)
  801ae0:	10c01985 	stb	r3,102(r2)
  if (d->_g16) {
  801ae4:	e0bffd17 	ldw	r2,-12(fp)
  801ae8:	10801983 	ldbu	r2,102(r2)
  801aec:	10803fcc 	andi	r2,r2,255
  801af0:	1080201c 	xori	r2,r2,128
  801af4:	10bfe004 	addi	r2,r2,-128
  801af8:	10001226 	beq	r2,zero,801b44 <logic+0x1680>
    d->_region1_null_x += d->deltaT;
  801afc:	e13ffd17 	ldw	r4,-12(fp)
  801b00:	20800217 	ldw	r2,8(r4)
  801b04:	20c00317 	ldw	r3,12(r4)
  801b08:	e1bffd17 	ldw	r6,-12(fp)
  801b0c:	31000617 	ldw	r4,24(r6)
  801b10:	31400717 	ldw	r5,28(r6)
  801b14:	200d883a 	mov	r6,r4
  801b18:	280f883a 	mov	r7,r5
  801b1c:	1009883a 	mov	r4,r2
  801b20:	180b883a 	mov	r5,r3
  801b24:	0805c5c0 	call	805c5c <__adddf3>
  801b28:	1009883a 	mov	r4,r2
  801b2c:	180b883a 	mov	r5,r3
  801b30:	2005883a 	mov	r2,r4
  801b34:	2807883a 	mov	r3,r5
  801b38:	e13ffd17 	ldw	r4,-12(fp)
  801b3c:	20800215 	stw	r2,8(r4)
  801b40:	20c00315 	stw	r3,12(r4)
  }
  d->_g13 = d->_pg41;
  801b44:	e0bffd17 	ldw	r2,-12(fp)
  801b48:	10c05303 	ldbu	r3,332(r2)
  801b4c:	e0bffd17 	ldw	r2,-12(fp)
  801b50:	10c01905 	stb	r3,100(r2)
  d->_cg46 = d->_region1_null_x >= PVARP_VALUE;
  801b54:	e13ffd17 	ldw	r4,-12(fp)
  801b58:	20800217 	ldw	r2,8(r4)
  801b5c:	20c00317 	ldw	r3,12(r4)
  801b60:	04000044 	movi	r16,1
  801b64:	000d883a 	mov	r6,zero
  801b68:	01d01274 	movhi	r7,16457
  801b6c:	1009883a 	mov	r4,r2
  801b70:	180b883a 	mov	r5,r3
  801b74:	08065080 	call	806508 <__gedf2>
  801b78:	1000010e 	bge	r2,zero,801b80 <logic+0x16bc>
  801b7c:	0021883a 	mov	r16,zero
  801b80:	8007883a 	mov	r3,r16
  801b84:	e0bffd17 	ldw	r2,-12(fp)
  801b88:	10c039c5 	stb	r3,231(r2)
  d->_g5 = d->_g13 && d->_cg46;
  801b8c:	e0bffd17 	ldw	r2,-12(fp)
  801b90:	10801903 	ldbu	r2,100(r2)
  801b94:	10803fcc 	andi	r2,r2,255
  801b98:	1080201c 	xori	r2,r2,128
  801b9c:	10bfe004 	addi	r2,r2,-128
  801ba0:	10000826 	beq	r2,zero,801bc4 <logic+0x1700>
  801ba4:	e0bffd17 	ldw	r2,-12(fp)
  801ba8:	108039c3 	ldbu	r2,231(r2)
  801bac:	10803fcc 	andi	r2,r2,255
  801bb0:	1080201c 	xori	r2,r2,128
  801bb4:	10bfe004 	addi	r2,r2,-128
  801bb8:	10000226 	beq	r2,zero,801bc4 <logic+0x1700>
  801bbc:	00800044 	movi	r2,1
  801bc0:	00000106 	br	801bc8 <logic+0x1704>
  801bc4:	0005883a 	mov	r2,zero
  801bc8:	1007883a 	mov	r3,r2
  801bcc:	e0bffd17 	ldw	r2,-12(fp)
  801bd0:	10c01785 	stb	r3,94(r2)
  if (d->_g5) {
  801bd4:	e0bffd17 	ldw	r2,-12(fp)
  801bd8:	10801783 	ldbu	r2,94(r2)
  801bdc:	10803fcc 	andi	r2,r2,255
  801be0:	1080201c 	xori	r2,r2,128
  801be4:	10bfe004 	addi	r2,r2,-128
  801be8:	10000326 	beq	r2,zero,801bf8 <logic+0x1734>
    d->_pacemaker_local__Atrig1 = 1;
  801bec:	e0bffd17 	ldw	r2,-12(fp)
  801bf0:	00c00044 	movi	r3,1
  801bf4:	10c00d85 	stb	r3,54(r2)
  }
  d->_g21 = d->_pg108;
  801bf8:	e0bffd17 	ldw	r2,-12(fp)
  801bfc:	10c05343 	ldbu	r3,333(r2)
  801c00:	e0bffd17 	ldw	r2,-12(fp)
  801c04:	10c01a45 	stb	r3,105(r2)
  d->_g155 = d->_pg125;
  801c08:	e0bffd17 	ldw	r2,-12(fp)
  801c0c:	10c05383 	ldbu	r3,334(r2)
  801c10:	e0bffd17 	ldw	r2,-12(fp)
  801c14:	10c02f05 	stb	r3,188(r2)
  d->_g167 = d->_pg145;
  801c18:	e0bffd17 	ldw	r2,-12(fp)
  801c1c:	10c053c3 	ldbu	r3,335(r2)
  801c20:	e0bffd17 	ldw	r2,-12(fp)
  801c24:	10c030c5 	stb	r3,195(r2)
  d->_g161 = d->_pg130;
  801c28:	e0bffd17 	ldw	r2,-12(fp)
  801c2c:	10c05403 	ldbu	r3,336(r2)
  801c30:	e0bffd17 	ldw	r2,-12(fp)
  801c34:	10c02fc5 	stb	r3,191(r2)
  d->_g176_e1 = !(d->_g21 || d->_g155 || d->_g167 || d->_g161);
  801c38:	e0bffd17 	ldw	r2,-12(fp)
  801c3c:	10801a43 	ldbu	r2,105(r2)
  801c40:	10803fcc 	andi	r2,r2,255
  801c44:	1080201c 	xori	r2,r2,128
  801c48:	10bfe004 	addi	r2,r2,-128
  801c4c:	1000141e 	bne	r2,zero,801ca0 <logic+0x17dc>
  801c50:	e0bffd17 	ldw	r2,-12(fp)
  801c54:	10802f03 	ldbu	r2,188(r2)
  801c58:	10803fcc 	andi	r2,r2,255
  801c5c:	1080201c 	xori	r2,r2,128
  801c60:	10bfe004 	addi	r2,r2,-128
  801c64:	10000e1e 	bne	r2,zero,801ca0 <logic+0x17dc>
  801c68:	e0bffd17 	ldw	r2,-12(fp)
  801c6c:	108030c3 	ldbu	r2,195(r2)
  801c70:	10803fcc 	andi	r2,r2,255
  801c74:	1080201c 	xori	r2,r2,128
  801c78:	10bfe004 	addi	r2,r2,-128
  801c7c:	1000081e 	bne	r2,zero,801ca0 <logic+0x17dc>
  801c80:	e0bffd17 	ldw	r2,-12(fp)
  801c84:	10802fc3 	ldbu	r2,191(r2)
  801c88:	10803fcc 	andi	r2,r2,255
  801c8c:	1080201c 	xori	r2,r2,128
  801c90:	10bfe004 	addi	r2,r2,-128
  801c94:	1000021e 	bne	r2,zero,801ca0 <logic+0x17dc>
  801c98:	00800044 	movi	r2,1
  801c9c:	00000106 	br	801ca4 <logic+0x17e0>
  801ca0:	0005883a 	mov	r2,zero
  801ca4:	1007883a 	mov	r3,r2
  801ca8:	e0bffd17 	ldw	r2,-12(fp)
  801cac:	10c04e85 	stb	r3,314(r2)
  d->_g185 = d->_pg190;
  801cb0:	e0bffd17 	ldw	r2,-12(fp)
  801cb4:	10c05443 	ldbu	r3,337(r2)
  801cb8:	e0bffd17 	ldw	r2,-12(fp)
  801cbc:	10c03385 	stb	r3,206(r2)
  d->_cg185 = d->VP || d->VS;
  801cc0:	e0bffd17 	ldw	r2,-12(fp)
  801cc4:	10800bc3 	ldbu	r2,47(r2)
  801cc8:	10803fcc 	andi	r2,r2,255
  801ccc:	1080201c 	xori	r2,r2,128
  801cd0:	10bfe004 	addi	r2,r2,-128
  801cd4:	1000061e 	bne	r2,zero,801cf0 <logic+0x182c>
  801cd8:	e0bffd17 	ldw	r2,-12(fp)
  801cdc:	10800a43 	ldbu	r2,41(r2)
  801ce0:	10803fcc 	andi	r2,r2,255
  801ce4:	1080201c 	xori	r2,r2,128
  801ce8:	10bfe004 	addi	r2,r2,-128
  801cec:	10000226 	beq	r2,zero,801cf8 <logic+0x1834>
  801cf0:	00800044 	movi	r2,1
  801cf4:	00000106 	br	801cfc <logic+0x1838>
  801cf8:	0005883a 	mov	r2,zero
  801cfc:	1007883a 	mov	r3,r2
  801d00:	e0bffd17 	ldw	r2,-12(fp)
  801d04:	10c04905 	stb	r3,292(r2)
  d->_g186 = d->_g185 && d->_cg185;
  801d08:	e0bffd17 	ldw	r2,-12(fp)
  801d0c:	10803383 	ldbu	r2,206(r2)
  801d10:	10803fcc 	andi	r2,r2,255
  801d14:	1080201c 	xori	r2,r2,128
  801d18:	10bfe004 	addi	r2,r2,-128
  801d1c:	10000826 	beq	r2,zero,801d40 <logic+0x187c>
  801d20:	e0bffd17 	ldw	r2,-12(fp)
  801d24:	10804903 	ldbu	r2,292(r2)
  801d28:	10803fcc 	andi	r2,r2,255
  801d2c:	1080201c 	xori	r2,r2,128
  801d30:	10bfe004 	addi	r2,r2,-128
  801d34:	10000226 	beq	r2,zero,801d40 <logic+0x187c>
  801d38:	00800044 	movi	r2,1
  801d3c:	00000106 	br	801d44 <logic+0x1880>
  801d40:	0005883a 	mov	r2,zero
  801d44:	1007883a 	mov	r3,r2
  801d48:	e0bffd17 	ldw	r2,-12(fp)
  801d4c:	10c033c5 	stb	r3,207(r2)
  if (d->_g186) {
  801d50:	e0bffd17 	ldw	r2,-12(fp)
  801d54:	108033c3 	ldbu	r2,207(r2)
  801d58:	10803fcc 	andi	r2,r2,255
  801d5c:	1080201c 	xori	r2,r2,128
  801d60:	10bfe004 	addi	r2,r2,-128
  801d64:	10000326 	beq	r2,zero,801d74 <logic+0x18b0>
    d->_pacemaker_local__Atrig6 = 1;
  801d68:	e0bffd17 	ldw	r2,-12(fp)
  801d6c:	00c00044 	movi	r3,1
  801d70:	10c00e45 	stb	r3,57(r2)
  }
  d->_g156_e1 = !d->_g155;
  801d74:	e0bffd17 	ldw	r2,-12(fp)
  801d78:	10802f03 	ldbu	r2,188(r2)
  801d7c:	10803fcc 	andi	r2,r2,255
  801d80:	1080201c 	xori	r2,r2,128
  801d84:	10bfe004 	addi	r2,r2,-128
  801d88:	1005003a 	cmpeq	r2,r2,zero
  801d8c:	1007883a 	mov	r3,r2
  801d90:	e0bffd17 	ldw	r2,-12(fp)
  801d94:	10c04dc5 	stb	r3,311(r2)
  d->_cg155 = d->_pacemaker_local__Atrig6;
  801d98:	e0bffd17 	ldw	r2,-12(fp)
  801d9c:	10c00e43 	ldbu	r3,57(r2)
  801da0:	e0bffd17 	ldw	r2,-12(fp)
  801da4:	10c04505 	stb	r3,276(r2)
  d->_g180 = d->_pg189;
  801da8:	e0bffd17 	ldw	r2,-12(fp)
  801dac:	10c05483 	ldbu	r3,338(r2)
  801db0:	e0bffd17 	ldw	r2,-12(fp)
  801db4:	10c032c5 	stb	r3,203(r2)
  d->_cg180 = d->_pacemaker_local__Atrig6;
  801db8:	e0bffd17 	ldw	r2,-12(fp)
  801dbc:	10c00e43 	ldbu	r3,57(r2)
  801dc0:	e0bffd17 	ldw	r2,-12(fp)
  801dc4:	10c04885 	stb	r3,290(r2)
  d->_g182 = d->_g180 && !d->_cg180;
  801dc8:	e0bffd17 	ldw	r2,-12(fp)
  801dcc:	108032c3 	ldbu	r2,203(r2)
  801dd0:	10803fcc 	andi	r2,r2,255
  801dd4:	1080201c 	xori	r2,r2,128
  801dd8:	10bfe004 	addi	r2,r2,-128
  801ddc:	10000826 	beq	r2,zero,801e00 <logic+0x193c>
  801de0:	e0bffd17 	ldw	r2,-12(fp)
  801de4:	10804883 	ldbu	r2,290(r2)
  801de8:	10803fcc 	andi	r2,r2,255
  801dec:	1080201c 	xori	r2,r2,128
  801df0:	10bfe004 	addi	r2,r2,-128
  801df4:	1000021e 	bne	r2,zero,801e00 <logic+0x193c>
  801df8:	00800044 	movi	r2,1
  801dfc:	00000106 	br	801e04 <logic+0x1940>
  801e00:	0005883a 	mov	r2,zero
  801e04:	1007883a 	mov	r3,r2
  801e08:	e0bffd17 	ldw	r2,-12(fp)
  801e0c:	10c03345 	stb	r3,205(r2)
  if (d->_g182) {
  801e10:	e0bffd17 	ldw	r2,-12(fp)
  801e14:	10803343 	ldbu	r2,205(r2)
  801e18:	10803fcc 	andi	r2,r2,255
  801e1c:	1080201c 	xori	r2,r2,128
  801e20:	10bfe004 	addi	r2,r2,-128
  801e24:	10001226 	beq	r2,zero,801e70 <logic+0x19ac>
    d->_pacemaker_local_x2 += d->deltaT;
  801e28:	e13ffd17 	ldw	r4,-12(fp)
  801e2c:	20801517 	ldw	r2,84(r4)
  801e30:	20c01617 	ldw	r3,88(r4)
  801e34:	e1bffd17 	ldw	r6,-12(fp)
  801e38:	31000617 	ldw	r4,24(r6)
  801e3c:	31400717 	ldw	r5,28(r6)
  801e40:	200d883a 	mov	r6,r4
  801e44:	280f883a 	mov	r7,r5
  801e48:	1009883a 	mov	r4,r2
  801e4c:	180b883a 	mov	r5,r3
  801e50:	0805c5c0 	call	805c5c <__adddf3>
  801e54:	1009883a 	mov	r4,r2
  801e58:	180b883a 	mov	r5,r3
  801e5c:	2005883a 	mov	r2,r4
  801e60:	2807883a 	mov	r3,r5
  801e64:	e13ffd17 	ldw	r4,-12(fp)
  801e68:	20801515 	stw	r2,84(r4)
  801e6c:	20c01615 	stw	r3,88(r4)
  }
  d->_cg171 = d->_pacemaker_local__Atrig6;
  801e70:	e0bffd17 	ldw	r2,-12(fp)
  801e74:	10c00e43 	ldbu	r3,57(r2)
  801e78:	e0bffd17 	ldw	r2,-12(fp)
  801e7c:	10c04785 	stb	r3,286(r2)
  d->_g173 = d->_g21 && !d->_cg171;
  801e80:	e0bffd17 	ldw	r2,-12(fp)
  801e84:	10801a43 	ldbu	r2,105(r2)
  801e88:	10803fcc 	andi	r2,r2,255
  801e8c:	1080201c 	xori	r2,r2,128
  801e90:	10bfe004 	addi	r2,r2,-128
  801e94:	10000826 	beq	r2,zero,801eb8 <logic+0x19f4>
  801e98:	e0bffd17 	ldw	r2,-12(fp)
  801e9c:	10804783 	ldbu	r2,286(r2)
  801ea0:	10803fcc 	andi	r2,r2,255
  801ea4:	1080201c 	xori	r2,r2,128
  801ea8:	10bfe004 	addi	r2,r2,-128
  801eac:	1000021e 	bne	r2,zero,801eb8 <logic+0x19f4>
  801eb0:	00800044 	movi	r2,1
  801eb4:	00000106 	br	801ebc <logic+0x19f8>
  801eb8:	0005883a 	mov	r2,zero
  801ebc:	1007883a 	mov	r3,r2
  801ec0:	e0bffd17 	ldw	r2,-12(fp)
  801ec4:	10c03185 	stb	r3,198(r2)
  d->_cg173 = d->_pacemaker_local_x2 >= LRI_VALUE;
  801ec8:	e13ffd17 	ldw	r4,-12(fp)
  801ecc:	20801517 	ldw	r2,84(r4)
  801ed0:	20c01617 	ldw	r3,88(r4)
  801ed4:	04000044 	movi	r16,1
  801ed8:	000d883a 	mov	r6,zero
  801edc:	01d023b4 	movhi	r7,16526
  801ee0:	39ec0004 	addi	r7,r7,-20480
  801ee4:	1009883a 	mov	r4,r2
  801ee8:	180b883a 	mov	r5,r3
  801eec:	08065080 	call	806508 <__gedf2>
  801ef0:	1000010e 	bge	r2,zero,801ef8 <logic+0x1a34>
  801ef4:	0021883a 	mov	r16,zero
  801ef8:	8007883a 	mov	r3,r16
  801efc:	e0bffd17 	ldw	r2,-12(fp)
  801f00:	10c04745 	stb	r3,285(r2)
  d->_g174 = d->_g173 && d->_cg173;
  801f04:	e0bffd17 	ldw	r2,-12(fp)
  801f08:	10803183 	ldbu	r2,198(r2)
  801f0c:	10803fcc 	andi	r2,r2,255
  801f10:	1080201c 	xori	r2,r2,128
  801f14:	10bfe004 	addi	r2,r2,-128
  801f18:	10000826 	beq	r2,zero,801f3c <logic+0x1a78>
  801f1c:	e0bffd17 	ldw	r2,-12(fp)
  801f20:	10804743 	ldbu	r2,285(r2)
  801f24:	10803fcc 	andi	r2,r2,255
  801f28:	1080201c 	xori	r2,r2,128
  801f2c:	10bfe004 	addi	r2,r2,-128
  801f30:	10000226 	beq	r2,zero,801f3c <logic+0x1a78>
  801f34:	00800044 	movi	r2,1
  801f38:	00000106 	br	801f40 <logic+0x1a7c>
  801f3c:	0005883a 	mov	r2,zero
  801f40:	1007883a 	mov	r3,r2
  801f44:	e0bffd17 	ldw	r2,-12(fp)
  801f48:	10c031c5 	stb	r3,199(r2)
  if (d->_g174) {
  801f4c:	e0bffd17 	ldw	r2,-12(fp)
  801f50:	108031c3 	ldbu	r2,199(r2)
  801f54:	10803fcc 	andi	r2,r2,255
  801f58:	1080201c 	xori	r2,r2,128
  801f5c:	10bfe004 	addi	r2,r2,-128
  801f60:	10000326 	beq	r2,zero,801f70 <logic+0x1aac>
    d->_pacemaker_local__Atrig7 = 1;
  801f64:	e0bffd17 	ldw	r2,-12(fp)
  801f68:	00c00044 	movi	r3,1
  801f6c:	10c01705 	stb	r3,92(r2)
  }
  d->_g157 = d->_g155 && !d->_cg155;
  801f70:	e0bffd17 	ldw	r2,-12(fp)
  801f74:	10802f03 	ldbu	r2,188(r2)
  801f78:	10803fcc 	andi	r2,r2,255
  801f7c:	1080201c 	xori	r2,r2,128
  801f80:	10bfe004 	addi	r2,r2,-128
  801f84:	10000826 	beq	r2,zero,801fa8 <logic+0x1ae4>
  801f88:	e0bffd17 	ldw	r2,-12(fp)
  801f8c:	10804503 	ldbu	r2,276(r2)
  801f90:	10803fcc 	andi	r2,r2,255
  801f94:	1080201c 	xori	r2,r2,128
  801f98:	10bfe004 	addi	r2,r2,-128
  801f9c:	1000021e 	bne	r2,zero,801fa8 <logic+0x1ae4>
  801fa0:	00800044 	movi	r2,1
  801fa4:	00000106 	br	801fac <logic+0x1ae8>
  801fa8:	0005883a 	mov	r2,zero
  801fac:	1007883a 	mov	r3,r2
  801fb0:	e0bffd17 	ldw	r2,-12(fp)
  801fb4:	10c02f85 	stb	r3,190(r2)
  if (d->_g157) {
  801fb8:	e0bffd17 	ldw	r2,-12(fp)
  801fbc:	10802f83 	ldbu	r2,190(r2)
  801fc0:	10803fcc 	andi	r2,r2,255
  801fc4:	1080201c 	xori	r2,r2,128
  801fc8:	10bfe004 	addi	r2,r2,-128
  801fcc:	10000626 	beq	r2,zero,801fe8 <logic+0x1b24>
    d->LRI_ACTIVE |= 1;
  801fd0:	e0bffd17 	ldw	r2,-12(fp)
  801fd4:	10800b43 	ldbu	r2,45(r2)
  801fd8:	10800054 	ori	r2,r2,1
  801fdc:	1007883a 	mov	r3,r2
  801fe0:	e0bffd17 	ldw	r2,-12(fp)
  801fe4:	10c00b45 	stb	r3,45(r2)
  }
  d->_cg157 = d->_pacemaker_local__Atrig7;
  801fe8:	e0bffd17 	ldw	r2,-12(fp)
  801fec:	10c01703 	ldbu	r3,92(r2)
  801ff0:	e0bffd17 	ldw	r2,-12(fp)
  801ff4:	10c044c5 	stb	r3,275(r2)
  d->_g155 = d->_g155 && d->_cg155 || d->_g157 && d->_cg157;
  801ff8:	e0bffd17 	ldw	r2,-12(fp)
  801ffc:	10802f03 	ldbu	r2,188(r2)
  802000:	10803fcc 	andi	r2,r2,255
  802004:	1080201c 	xori	r2,r2,128
  802008:	10bfe004 	addi	r2,r2,-128
  80200c:	10000626 	beq	r2,zero,802028 <logic+0x1b64>
  802010:	e0bffd17 	ldw	r2,-12(fp)
  802014:	10804503 	ldbu	r2,276(r2)
  802018:	10803fcc 	andi	r2,r2,255
  80201c:	1080201c 	xori	r2,r2,128
  802020:	10bfe004 	addi	r2,r2,-128
  802024:	10000c1e 	bne	r2,zero,802058 <logic+0x1b94>
  802028:	e0bffd17 	ldw	r2,-12(fp)
  80202c:	10802f83 	ldbu	r2,190(r2)
  802030:	10803fcc 	andi	r2,r2,255
  802034:	1080201c 	xori	r2,r2,128
  802038:	10bfe004 	addi	r2,r2,-128
  80203c:	10000826 	beq	r2,zero,802060 <logic+0x1b9c>
  802040:	e0bffd17 	ldw	r2,-12(fp)
  802044:	108044c3 	ldbu	r2,275(r2)
  802048:	10803fcc 	andi	r2,r2,255
  80204c:	1080201c 	xori	r2,r2,128
  802050:	10bfe004 	addi	r2,r2,-128
  802054:	10000226 	beq	r2,zero,802060 <logic+0x1b9c>
  802058:	00800044 	movi	r2,1
  80205c:	00000106 	br	802064 <logic+0x1ba0>
  802060:	0005883a 	mov	r2,zero
  802064:	1007883a 	mov	r3,r2
  802068:	e0bffd17 	ldw	r2,-12(fp)
  80206c:	10c02f05 	stb	r3,188(r2)
  d->_g162_e2 = !(d->_g167 || d->_g161);
  802070:	e0bffd17 	ldw	r2,-12(fp)
  802074:	108030c3 	ldbu	r2,195(r2)
  802078:	10803fcc 	andi	r2,r2,255
  80207c:	1080201c 	xori	r2,r2,128
  802080:	10bfe004 	addi	r2,r2,-128
  802084:	1000081e 	bne	r2,zero,8020a8 <logic+0x1be4>
  802088:	e0bffd17 	ldw	r2,-12(fp)
  80208c:	10802fc3 	ldbu	r2,191(r2)
  802090:	10803fcc 	andi	r2,r2,255
  802094:	1080201c 	xori	r2,r2,128
  802098:	10bfe004 	addi	r2,r2,-128
  80209c:	1000021e 	bne	r2,zero,8020a8 <logic+0x1be4>
  8020a0:	00800044 	movi	r2,1
  8020a4:	00000106 	br	8020ac <logic+0x1be8>
  8020a8:	0005883a 	mov	r2,zero
  8020ac:	1007883a 	mov	r3,r2
  8020b0:	e0bffd17 	ldw	r2,-12(fp)
  8020b4:	10c04e05 	stb	r3,312(r2)
  d->_cg161 = d->_pacemaker_local__Atrig6;
  8020b8:	e0bffd17 	ldw	r2,-12(fp)
  8020bc:	10c00e43 	ldbu	r3,57(r2)
  8020c0:	e0bffd17 	ldw	r2,-12(fp)
  8020c4:	10c04605 	stb	r3,280(r2)
  d->_cg167 = d->_pacemaker_local__Atrig6;
  8020c8:	e0bffd17 	ldw	r2,-12(fp)
  8020cc:	10c00e43 	ldbu	r3,57(r2)
  8020d0:	e0bffd17 	ldw	r2,-12(fp)
  8020d4:	10c04685 	stb	r3,282(r2)
  d->_g163 = d->_g161 && !d->_cg161 || d->_g167 && !d->_cg167;
  8020d8:	e0bffd17 	ldw	r2,-12(fp)
  8020dc:	10802fc3 	ldbu	r2,191(r2)
  8020e0:	10803fcc 	andi	r2,r2,255
  8020e4:	1080201c 	xori	r2,r2,128
  8020e8:	10bfe004 	addi	r2,r2,-128
  8020ec:	10000626 	beq	r2,zero,802108 <logic+0x1c44>
  8020f0:	e0bffd17 	ldw	r2,-12(fp)
  8020f4:	10804603 	ldbu	r2,280(r2)
  8020f8:	10803fcc 	andi	r2,r2,255
  8020fc:	1080201c 	xori	r2,r2,128
  802100:	10bfe004 	addi	r2,r2,-128
  802104:	10000c26 	beq	r2,zero,802138 <logic+0x1c74>
  802108:	e0bffd17 	ldw	r2,-12(fp)
  80210c:	108030c3 	ldbu	r2,195(r2)
  802110:	10803fcc 	andi	r2,r2,255
  802114:	1080201c 	xori	r2,r2,128
  802118:	10bfe004 	addi	r2,r2,-128
  80211c:	10000826 	beq	r2,zero,802140 <logic+0x1c7c>
  802120:	e0bffd17 	ldw	r2,-12(fp)
  802124:	10804683 	ldbu	r2,282(r2)
  802128:	10803fcc 	andi	r2,r2,255
  80212c:	1080201c 	xori	r2,r2,128
  802130:	10bfe004 	addi	r2,r2,-128
  802134:	1000021e 	bne	r2,zero,802140 <logic+0x1c7c>
  802138:	00800044 	movi	r2,1
  80213c:	00000106 	br	802144 <logic+0x1c80>
  802140:	0005883a 	mov	r2,zero
  802144:	1007883a 	mov	r3,r2
  802148:	e0bffd17 	ldw	r2,-12(fp)
  80214c:	10c03045 	stb	r3,193(r2)
  d->_cg163 = d->_pacemaker_local_x2 < LRI_VALUE;
  802150:	e13ffd17 	ldw	r4,-12(fp)
  802154:	20801517 	ldw	r2,84(r4)
  802158:	20c01617 	ldw	r3,88(r4)
  80215c:	04000044 	movi	r16,1
  802160:	000d883a 	mov	r6,zero
  802164:	01d023b4 	movhi	r7,16526
  802168:	39ec0004 	addi	r7,r7,-20480
  80216c:	1009883a 	mov	r4,r2
  802170:	180b883a 	mov	r5,r3
  802174:	08065e40 	call	8065e4 <__ledf2>
  802178:	10000116 	blt	r2,zero,802180 <logic+0x1cbc>
  80217c:	0021883a 	mov	r16,zero
  802180:	8007883a 	mov	r3,r16
  802184:	e0bffd17 	ldw	r2,-12(fp)
  802188:	10c046c5 	stb	r3,283(r2)
  d->_g164 = d->_g163 && d->_cg163;
  80218c:	e0bffd17 	ldw	r2,-12(fp)
  802190:	10803043 	ldbu	r2,193(r2)
  802194:	10803fcc 	andi	r2,r2,255
  802198:	1080201c 	xori	r2,r2,128
  80219c:	10bfe004 	addi	r2,r2,-128
  8021a0:	10000826 	beq	r2,zero,8021c4 <logic+0x1d00>
  8021a4:	e0bffd17 	ldw	r2,-12(fp)
  8021a8:	108046c3 	ldbu	r2,283(r2)
  8021ac:	10803fcc 	andi	r2,r2,255
  8021b0:	1080201c 	xori	r2,r2,128
  8021b4:	10bfe004 	addi	r2,r2,-128
  8021b8:	10000226 	beq	r2,zero,8021c4 <logic+0x1d00>
  8021bc:	00800044 	movi	r2,1
  8021c0:	00000106 	br	8021c8 <logic+0x1d04>
  8021c4:	0005883a 	mov	r2,zero
  8021c8:	1007883a 	mov	r3,r2
  8021cc:	e0bffd17 	ldw	r2,-12(fp)
  8021d0:	10c03085 	stb	r3,194(r2)
  if (d->_g164) {
  8021d4:	e0bffd17 	ldw	r2,-12(fp)
  8021d8:	10803083 	ldbu	r2,194(r2)
  8021dc:	10803fcc 	andi	r2,r2,255
  8021e0:	1080201c 	xori	r2,r2,128
  8021e4:	10bfe004 	addi	r2,r2,-128
  8021e8:	10002a26 	beq	r2,zero,802294 <logic+0x1dd0>
    d->sleepT = (d->sleepT < (LRI_VALUE - d->_pacemaker_local_x2)) ? d->sleepT : (LRI_VALUE - d->_pacemaker_local_x2);
  8021ec:	e0bffd17 	ldw	r2,-12(fp)
  8021f0:	14000817 	ldw	r16,32(r2)
  8021f4:	14400917 	ldw	r17,36(r2)
  8021f8:	e13ffd17 	ldw	r4,-12(fp)
  8021fc:	20801517 	ldw	r2,84(r4)
  802200:	20c01617 	ldw	r3,88(r4)
  802204:	100d883a 	mov	r6,r2
  802208:	180f883a 	mov	r7,r3
  80220c:	0009883a 	mov	r4,zero
  802210:	015023b4 	movhi	r5,16526
  802214:	296c0004 	addi	r5,r5,-20480
  802218:	0806df00 	call	806df0 <__subdf3>
  80221c:	1009883a 	mov	r4,r2
  802220:	180b883a 	mov	r5,r3
  802224:	2005883a 	mov	r2,r4
  802228:	2807883a 	mov	r3,r5
  80222c:	100d883a 	mov	r6,r2
  802230:	180f883a 	mov	r7,r3
  802234:	8009883a 	mov	r4,r16
  802238:	880b883a 	mov	r5,r17
  80223c:	08065e40 	call	8065e4 <__ledf2>
  802240:	1000040e 	bge	r2,zero,802254 <logic+0x1d90>
  802244:	e13ffd17 	ldw	r4,-12(fp)
  802248:	20800817 	ldw	r2,32(r4)
  80224c:	20c00917 	ldw	r3,36(r4)
  802250:	00000d06 	br	802288 <logic+0x1dc4>
  802254:	e13ffd17 	ldw	r4,-12(fp)
  802258:	20801517 	ldw	r2,84(r4)
  80225c:	20c01617 	ldw	r3,88(r4)
  802260:	100d883a 	mov	r6,r2
  802264:	180f883a 	mov	r7,r3
  802268:	0009883a 	mov	r4,zero
  80226c:	015023b4 	movhi	r5,16526
  802270:	296c0004 	addi	r5,r5,-20480
  802274:	0806df00 	call	806df0 <__subdf3>
  802278:	1009883a 	mov	r4,r2
  80227c:	180b883a 	mov	r5,r3
  802280:	2005883a 	mov	r2,r4
  802284:	2807883a 	mov	r3,r5
  802288:	e13ffd17 	ldw	r4,-12(fp)
  80228c:	20800815 	stw	r2,32(r4)
  802290:	20c00915 	stw	r3,36(r4)
  }
  d->_cg164 = d->_pacemaker_local__Atrig7;
  802294:	e0bffd17 	ldw	r2,-12(fp)
  802298:	10c01703 	ldbu	r3,92(r2)
  80229c:	e0bffd17 	ldw	r2,-12(fp)
  8022a0:	10c045c5 	stb	r3,279(r2)
  d->_g163 = d->_g163 && !d->_cg163;
  8022a4:	e0bffd17 	ldw	r2,-12(fp)
  8022a8:	10803043 	ldbu	r2,193(r2)
  8022ac:	10803fcc 	andi	r2,r2,255
  8022b0:	1080201c 	xori	r2,r2,128
  8022b4:	10bfe004 	addi	r2,r2,-128
  8022b8:	10000826 	beq	r2,zero,8022dc <logic+0x1e18>
  8022bc:	e0bffd17 	ldw	r2,-12(fp)
  8022c0:	108046c3 	ldbu	r2,283(r2)
  8022c4:	10803fcc 	andi	r2,r2,255
  8022c8:	1080201c 	xori	r2,r2,128
  8022cc:	10bfe004 	addi	r2,r2,-128
  8022d0:	1000021e 	bne	r2,zero,8022dc <logic+0x1e18>
  8022d4:	00800044 	movi	r2,1
  8022d8:	00000106 	br	8022e0 <logic+0x1e1c>
  8022dc:	0005883a 	mov	r2,zero
  8022e0:	1007883a 	mov	r3,r2
  8022e4:	e0bffd17 	ldw	r2,-12(fp)
  8022e8:	10c03045 	stb	r3,193(r2)
  d->_cg165 = d->_pacemaker_local__Atrig7;
  8022ec:	e0bffd17 	ldw	r2,-12(fp)
  8022f0:	10c01703 	ldbu	r3,92(r2)
  8022f4:	e0bffd17 	ldw	r2,-12(fp)
  8022f8:	10c04645 	stb	r3,281(r2)
  d->_g167 = d->_g161 && d->_cg161 || d->_g164 && d->_cg164 || d->_g163 && d->_cg165 || d->_g167 && d->_cg167;
  8022fc:	e0bffd17 	ldw	r2,-12(fp)
  802300:	10802fc3 	ldbu	r2,191(r2)
  802304:	10803fcc 	andi	r2,r2,255
  802308:	1080201c 	xori	r2,r2,128
  80230c:	10bfe004 	addi	r2,r2,-128
  802310:	10000626 	beq	r2,zero,80232c <logic+0x1e68>
  802314:	e0bffd17 	ldw	r2,-12(fp)
  802318:	10804603 	ldbu	r2,280(r2)
  80231c:	10803fcc 	andi	r2,r2,255
  802320:	1080201c 	xori	r2,r2,128
  802324:	10bfe004 	addi	r2,r2,-128
  802328:	1000241e 	bne	r2,zero,8023bc <logic+0x1ef8>
  80232c:	e0bffd17 	ldw	r2,-12(fp)
  802330:	10803083 	ldbu	r2,194(r2)
  802334:	10803fcc 	andi	r2,r2,255
  802338:	1080201c 	xori	r2,r2,128
  80233c:	10bfe004 	addi	r2,r2,-128
  802340:	10000626 	beq	r2,zero,80235c <logic+0x1e98>
  802344:	e0bffd17 	ldw	r2,-12(fp)
  802348:	108045c3 	ldbu	r2,279(r2)
  80234c:	10803fcc 	andi	r2,r2,255
  802350:	1080201c 	xori	r2,r2,128
  802354:	10bfe004 	addi	r2,r2,-128
  802358:	1000181e 	bne	r2,zero,8023bc <logic+0x1ef8>
  80235c:	e0bffd17 	ldw	r2,-12(fp)
  802360:	10803043 	ldbu	r2,193(r2)
  802364:	10803fcc 	andi	r2,r2,255
  802368:	1080201c 	xori	r2,r2,128
  80236c:	10bfe004 	addi	r2,r2,-128
  802370:	10000626 	beq	r2,zero,80238c <logic+0x1ec8>
  802374:	e0bffd17 	ldw	r2,-12(fp)
  802378:	10804643 	ldbu	r2,281(r2)
  80237c:	10803fcc 	andi	r2,r2,255
  802380:	1080201c 	xori	r2,r2,128
  802384:	10bfe004 	addi	r2,r2,-128
  802388:	10000c1e 	bne	r2,zero,8023bc <logic+0x1ef8>
  80238c:	e0bffd17 	ldw	r2,-12(fp)
  802390:	108030c3 	ldbu	r2,195(r2)
  802394:	10803fcc 	andi	r2,r2,255
  802398:	1080201c 	xori	r2,r2,128
  80239c:	10bfe004 	addi	r2,r2,-128
  8023a0:	10000826 	beq	r2,zero,8023c4 <logic+0x1f00>
  8023a4:	e0bffd17 	ldw	r2,-12(fp)
  8023a8:	10804683 	ldbu	r2,282(r2)
  8023ac:	10803fcc 	andi	r2,r2,255
  8023b0:	1080201c 	xori	r2,r2,128
  8023b4:	10bfe004 	addi	r2,r2,-128
  8023b8:	10000226 	beq	r2,zero,8023c4 <logic+0x1f00>
  8023bc:	00800044 	movi	r2,1
  8023c0:	00000106 	br	8023c8 <logic+0x1f04>
  8023c4:	0005883a 	mov	r2,zero
  8023c8:	1007883a 	mov	r3,r2
  8023cc:	e0bffd17 	ldw	r2,-12(fp)
  8023d0:	10c030c5 	stb	r3,195(r2)
  d->_g161 = !d->_g21;
  8023d4:	e0bffd17 	ldw	r2,-12(fp)
  8023d8:	10801a43 	ldbu	r2,105(r2)
  8023dc:	10803fcc 	andi	r2,r2,255
  8023e0:	1080201c 	xori	r2,r2,128
  8023e4:	10bfe004 	addi	r2,r2,-128
  8023e8:	1005003a 	cmpeq	r2,r2,zero
  8023ec:	1007883a 	mov	r3,r2
  8023f0:	e0bffd17 	ldw	r2,-12(fp)
  8023f4:	10c02fc5 	stb	r3,191(r2)
  d->_g174 = d->_g21 && d->_cg171 || d->_g174;
  8023f8:	e0bffd17 	ldw	r2,-12(fp)
  8023fc:	10801a43 	ldbu	r2,105(r2)
  802400:	10803fcc 	andi	r2,r2,255
  802404:	1080201c 	xori	r2,r2,128
  802408:	10bfe004 	addi	r2,r2,-128
  80240c:	10000626 	beq	r2,zero,802428 <logic+0x1f64>
  802410:	e0bffd17 	ldw	r2,-12(fp)
  802414:	10804783 	ldbu	r2,286(r2)
  802418:	10803fcc 	andi	r2,r2,255
  80241c:	1080201c 	xori	r2,r2,128
  802420:	10bfe004 	addi	r2,r2,-128
  802424:	1000061e 	bne	r2,zero,802440 <logic+0x1f7c>
  802428:	e0bffd17 	ldw	r2,-12(fp)
  80242c:	108031c3 	ldbu	r2,199(r2)
  802430:	10803fcc 	andi	r2,r2,255
  802434:	1080201c 	xori	r2,r2,128
  802438:	10bfe004 	addi	r2,r2,-128
  80243c:	10000226 	beq	r2,zero,802448 <logic+0x1f84>
  802440:	00800044 	movi	r2,1
  802444:	00000106 	br	80244c <logic+0x1f88>
  802448:	0005883a 	mov	r2,zero
  80244c:	1007883a 	mov	r3,r2
  802450:	e0bffd17 	ldw	r2,-12(fp)
  802454:	10c031c5 	stb	r3,199(r2)
  d->_g171 = (d->_g156_e1 || d->_g155) && (d->_g162_e2 || d->_g167) && (d->_g161 || d->_g174) && (d->_g155 || d->_g167 || d->_g174);
  802458:	e0bffd17 	ldw	r2,-12(fp)
  80245c:	10804dc3 	ldbu	r2,311(r2)
  802460:	10803fcc 	andi	r2,r2,255
  802464:	1080201c 	xori	r2,r2,128
  802468:	10bfe004 	addi	r2,r2,-128
  80246c:	1000061e 	bne	r2,zero,802488 <logic+0x1fc4>
  802470:	e0bffd17 	ldw	r2,-12(fp)
  802474:	10802f03 	ldbu	r2,188(r2)
  802478:	10803fcc 	andi	r2,r2,255
  80247c:	1080201c 	xori	r2,r2,128
  802480:	10bfe004 	addi	r2,r2,-128
  802484:	10002c26 	beq	r2,zero,802538 <logic+0x2074>
  802488:	e0bffd17 	ldw	r2,-12(fp)
  80248c:	10804e03 	ldbu	r2,312(r2)
  802490:	10803fcc 	andi	r2,r2,255
  802494:	1080201c 	xori	r2,r2,128
  802498:	10bfe004 	addi	r2,r2,-128
  80249c:	1000061e 	bne	r2,zero,8024b8 <logic+0x1ff4>
  8024a0:	e0bffd17 	ldw	r2,-12(fp)
  8024a4:	108030c3 	ldbu	r2,195(r2)
  8024a8:	10803fcc 	andi	r2,r2,255
  8024ac:	1080201c 	xori	r2,r2,128
  8024b0:	10bfe004 	addi	r2,r2,-128
  8024b4:	10002026 	beq	r2,zero,802538 <logic+0x2074>
  8024b8:	e0bffd17 	ldw	r2,-12(fp)
  8024bc:	10802fc3 	ldbu	r2,191(r2)
  8024c0:	10803fcc 	andi	r2,r2,255
  8024c4:	1080201c 	xori	r2,r2,128
  8024c8:	10bfe004 	addi	r2,r2,-128
  8024cc:	1000061e 	bne	r2,zero,8024e8 <logic+0x2024>
  8024d0:	e0bffd17 	ldw	r2,-12(fp)
  8024d4:	108031c3 	ldbu	r2,199(r2)
  8024d8:	10803fcc 	andi	r2,r2,255
  8024dc:	1080201c 	xori	r2,r2,128
  8024e0:	10bfe004 	addi	r2,r2,-128
  8024e4:	10001426 	beq	r2,zero,802538 <logic+0x2074>
  8024e8:	e0bffd17 	ldw	r2,-12(fp)
  8024ec:	10802f03 	ldbu	r2,188(r2)
  8024f0:	10803fcc 	andi	r2,r2,255
  8024f4:	1080201c 	xori	r2,r2,128
  8024f8:	10bfe004 	addi	r2,r2,-128
  8024fc:	10000c1e 	bne	r2,zero,802530 <logic+0x206c>
  802500:	e0bffd17 	ldw	r2,-12(fp)
  802504:	108030c3 	ldbu	r2,195(r2)
  802508:	10803fcc 	andi	r2,r2,255
  80250c:	1080201c 	xori	r2,r2,128
  802510:	10bfe004 	addi	r2,r2,-128
  802514:	1000061e 	bne	r2,zero,802530 <logic+0x206c>
  802518:	e0bffd17 	ldw	r2,-12(fp)
  80251c:	108031c3 	ldbu	r2,199(r2)
  802520:	10803fcc 	andi	r2,r2,255
  802524:	1080201c 	xori	r2,r2,128
  802528:	10bfe004 	addi	r2,r2,-128
  80252c:	10000226 	beq	r2,zero,802538 <logic+0x2074>
  802530:	00800044 	movi	r2,1
  802534:	00000106 	br	80253c <logic+0x2078>
  802538:	0005883a 	mov	r2,zero
  80253c:	1007883a 	mov	r3,r2
  802540:	e0bffd17 	ldw	r2,-12(fp)
  802544:	10c03105 	stb	r3,196(r2)
  d->_cg175 = d->_pacemaker_local__Atrig6;
  802548:	e0bffd17 	ldw	r2,-12(fp)
  80254c:	10c00e43 	ldbu	r3,57(r2)
  802550:	e0bffd17 	ldw	r2,-12(fp)
  802554:	10c047c5 	stb	r3,287(r2)
  d->_g156 = d->_g171 && !d->_cg175;
  802558:	e0bffd17 	ldw	r2,-12(fp)
  80255c:	10803103 	ldbu	r2,196(r2)
  802560:	10803fcc 	andi	r2,r2,255
  802564:	1080201c 	xori	r2,r2,128
  802568:	10bfe004 	addi	r2,r2,-128
  80256c:	10000826 	beq	r2,zero,802590 <logic+0x20cc>
  802570:	e0bffd17 	ldw	r2,-12(fp)
  802574:	108047c3 	ldbu	r2,287(r2)
  802578:	10803fcc 	andi	r2,r2,255
  80257c:	1080201c 	xori	r2,r2,128
  802580:	10bfe004 	addi	r2,r2,-128
  802584:	1000021e 	bne	r2,zero,802590 <logic+0x20cc>
  802588:	00800044 	movi	r2,1
  80258c:	00000106 	br	802594 <logic+0x20d0>
  802590:	0005883a 	mov	r2,zero
  802594:	1007883a 	mov	r3,r2
  802598:	e0bffd17 	ldw	r2,-12(fp)
  80259c:	10c02f45 	stb	r3,189(r2)
  if (d->_g156) {
  8025a0:	e0bffd17 	ldw	r2,-12(fp)
  8025a4:	10802f43 	ldbu	r2,189(r2)
  8025a8:	10803fcc 	andi	r2,r2,255
  8025ac:	1080201c 	xori	r2,r2,128
  8025b0:	10bfe004 	addi	r2,r2,-128
  8025b4:	10000326 	beq	r2,zero,8025c4 <logic+0x2100>
    d->_pacemaker_local__CFSterm2 = 1;
  8025b8:	e0bffd17 	ldw	r2,-12(fp)
  8025bc:	00c00044 	movi	r3,1
  8025c0:	10c00d05 	stb	r3,52(r2)
  }
  d->_g156_e1 = d->_g171 && d->_cg175 || d->_g156;
  8025c4:	e0bffd17 	ldw	r2,-12(fp)
  8025c8:	10803103 	ldbu	r2,196(r2)
  8025cc:	10803fcc 	andi	r2,r2,255
  8025d0:	1080201c 	xori	r2,r2,128
  8025d4:	10bfe004 	addi	r2,r2,-128
  8025d8:	10000626 	beq	r2,zero,8025f4 <logic+0x2130>
  8025dc:	e0bffd17 	ldw	r2,-12(fp)
  8025e0:	108047c3 	ldbu	r2,287(r2)
  8025e4:	10803fcc 	andi	r2,r2,255
  8025e8:	1080201c 	xori	r2,r2,128
  8025ec:	10bfe004 	addi	r2,r2,-128
  8025f0:	1000061e 	bne	r2,zero,80260c <logic+0x2148>
  8025f4:	e0bffd17 	ldw	r2,-12(fp)
  8025f8:	10802f43 	ldbu	r2,189(r2)
  8025fc:	10803fcc 	andi	r2,r2,255
  802600:	1080201c 	xori	r2,r2,128
  802604:	10bfe004 	addi	r2,r2,-128
  802608:	10000226 	beq	r2,zero,802614 <logic+0x2150>
  80260c:	00800044 	movi	r2,1
  802610:	00000106 	br	802618 <logic+0x2154>
  802614:	0005883a 	mov	r2,zero
  802618:	1007883a 	mov	r3,r2
  80261c:	e0bffd17 	ldw	r2,-12(fp)
  802620:	10c04dc5 	stb	r3,311(r2)
  d->_g172 = !d->_g180;
  802624:	e0bffd17 	ldw	r2,-12(fp)
  802628:	108032c3 	ldbu	r2,203(r2)
  80262c:	10803fcc 	andi	r2,r2,255
  802630:	1080201c 	xori	r2,r2,128
  802634:	10bfe004 	addi	r2,r2,-128
  802638:	1005003a 	cmpeq	r2,r2,zero
  80263c:	1007883a 	mov	r3,r2
  802640:	e0bffd17 	ldw	r2,-12(fp)
  802644:	10c03145 	stb	r3,197(r2)
  d->_cg182 = d->_pacemaker_local__CFSterm2;
  802648:	e0bffd17 	ldw	r2,-12(fp)
  80264c:	10c00d03 	ldbu	r3,52(r2)
  802650:	e0bffd17 	ldw	r2,-12(fp)
  802654:	10c04845 	stb	r3,289(r2)
  d->_g172_e3 = d->_g180 && d->_cg180 || d->_g182 && d->_cg182;
  802658:	e0bffd17 	ldw	r2,-12(fp)
  80265c:	108032c3 	ldbu	r2,203(r2)
  802660:	10803fcc 	andi	r2,r2,255
  802664:	1080201c 	xori	r2,r2,128
  802668:	10bfe004 	addi	r2,r2,-128
  80266c:	10000626 	beq	r2,zero,802688 <logic+0x21c4>
  802670:	e0bffd17 	ldw	r2,-12(fp)
  802674:	10804883 	ldbu	r2,290(r2)
  802678:	10803fcc 	andi	r2,r2,255
  80267c:	1080201c 	xori	r2,r2,128
  802680:	10bfe004 	addi	r2,r2,-128
  802684:	10000c1e 	bne	r2,zero,8026b8 <logic+0x21f4>
  802688:	e0bffd17 	ldw	r2,-12(fp)
  80268c:	10803343 	ldbu	r2,205(r2)
  802690:	10803fcc 	andi	r2,r2,255
  802694:	1080201c 	xori	r2,r2,128
  802698:	10bfe004 	addi	r2,r2,-128
  80269c:	10000826 	beq	r2,zero,8026c0 <logic+0x21fc>
  8026a0:	e0bffd17 	ldw	r2,-12(fp)
  8026a4:	10804843 	ldbu	r2,289(r2)
  8026a8:	10803fcc 	andi	r2,r2,255
  8026ac:	1080201c 	xori	r2,r2,128
  8026b0:	10bfe004 	addi	r2,r2,-128
  8026b4:	10000226 	beq	r2,zero,8026c0 <logic+0x21fc>
  8026b8:	00800044 	movi	r2,1
  8026bc:	00000106 	br	8026c4 <logic+0x2200>
  8026c0:	0005883a 	mov	r2,zero
  8026c4:	1007883a 	mov	r3,r2
  8026c8:	e0bffd17 	ldw	r2,-12(fp)
  8026cc:	10c04e45 	stb	r3,313(r2)
  d->_g162 = !d->_g185;
  8026d0:	e0bffd17 	ldw	r2,-12(fp)
  8026d4:	10803383 	ldbu	r2,206(r2)
  8026d8:	10803fcc 	andi	r2,r2,255
  8026dc:	1080201c 	xori	r2,r2,128
  8026e0:	10bfe004 	addi	r2,r2,-128
  8026e4:	1005003a 	cmpeq	r2,r2,zero
  8026e8:	1007883a 	mov	r3,r2
  8026ec:	e0bffd17 	ldw	r2,-12(fp)
  8026f0:	10c03005 	stb	r3,192(r2)
  d->_g162_e2 = d->_g185 && !d->_cg185;
  8026f4:	e0bffd17 	ldw	r2,-12(fp)
  8026f8:	10803383 	ldbu	r2,206(r2)
  8026fc:	10803fcc 	andi	r2,r2,255
  802700:	1080201c 	xori	r2,r2,128
  802704:	10bfe004 	addi	r2,r2,-128
  802708:	10000826 	beq	r2,zero,80272c <logic+0x2268>
  80270c:	e0bffd17 	ldw	r2,-12(fp)
  802710:	10804903 	ldbu	r2,292(r2)
  802714:	10803fcc 	andi	r2,r2,255
  802718:	1080201c 	xori	r2,r2,128
  80271c:	10bfe004 	addi	r2,r2,-128
  802720:	1000021e 	bne	r2,zero,80272c <logic+0x2268>
  802724:	00800044 	movi	r2,1
  802728:	00000106 	br	802730 <logic+0x226c>
  80272c:	0005883a 	mov	r2,zero
  802730:	1007883a 	mov	r3,r2
  802734:	e0bffd17 	ldw	r2,-12(fp)
  802738:	10c04e05 	stb	r3,312(r2)
  d->_cg188 = d->_pacemaker_local__CFSterm2;
  80273c:	e0bffd17 	ldw	r2,-12(fp)
  802740:	10c00d03 	ldbu	r3,52(r2)
  802744:	e0bffd17 	ldw	r2,-12(fp)
  802748:	10c048c5 	stb	r3,291(r2)
  d->_g175 = d->_g186 || d->_g162_e2 && d->_cg188;
  80274c:	e0bffd17 	ldw	r2,-12(fp)
  802750:	108033c3 	ldbu	r2,207(r2)
  802754:	10803fcc 	andi	r2,r2,255
  802758:	1080201c 	xori	r2,r2,128
  80275c:	10bfe004 	addi	r2,r2,-128
  802760:	10000c1e 	bne	r2,zero,802794 <logic+0x22d0>
  802764:	e0bffd17 	ldw	r2,-12(fp)
  802768:	10804e03 	ldbu	r2,312(r2)
  80276c:	10803fcc 	andi	r2,r2,255
  802770:	1080201c 	xori	r2,r2,128
  802774:	10bfe004 	addi	r2,r2,-128
  802778:	10000826 	beq	r2,zero,80279c <logic+0x22d8>
  80277c:	e0bffd17 	ldw	r2,-12(fp)
  802780:	108048c3 	ldbu	r2,291(r2)
  802784:	10803fcc 	andi	r2,r2,255
  802788:	1080201c 	xori	r2,r2,128
  80278c:	10bfe004 	addi	r2,r2,-128
  802790:	10000226 	beq	r2,zero,80279c <logic+0x22d8>
  802794:	00800044 	movi	r2,1
  802798:	00000106 	br	8027a0 <logic+0x22dc>
  80279c:	0005883a 	mov	r2,zero
  8027a0:	1007883a 	mov	r3,r2
  8027a4:	e0bffd17 	ldw	r2,-12(fp)
  8027a8:	10c03205 	stb	r3,200(r2)
  d->_g177 = (d->_g176_e1 || d->_g156_e1) && (d->_g172 || d->_g172_e3) && (d->_g162 || d->_g175) && (d->_g156_e1 || d->_g172_e3 || d->_g175);
  8027ac:	e0bffd17 	ldw	r2,-12(fp)
  8027b0:	10804e83 	ldbu	r2,314(r2)
  8027b4:	10803fcc 	andi	r2,r2,255
  8027b8:	1080201c 	xori	r2,r2,128
  8027bc:	10bfe004 	addi	r2,r2,-128
  8027c0:	1000061e 	bne	r2,zero,8027dc <logic+0x2318>
  8027c4:	e0bffd17 	ldw	r2,-12(fp)
  8027c8:	10804dc3 	ldbu	r2,311(r2)
  8027cc:	10803fcc 	andi	r2,r2,255
  8027d0:	1080201c 	xori	r2,r2,128
  8027d4:	10bfe004 	addi	r2,r2,-128
  8027d8:	10002c26 	beq	r2,zero,80288c <logic+0x23c8>
  8027dc:	e0bffd17 	ldw	r2,-12(fp)
  8027e0:	10803143 	ldbu	r2,197(r2)
  8027e4:	10803fcc 	andi	r2,r2,255
  8027e8:	1080201c 	xori	r2,r2,128
  8027ec:	10bfe004 	addi	r2,r2,-128
  8027f0:	1000061e 	bne	r2,zero,80280c <logic+0x2348>
  8027f4:	e0bffd17 	ldw	r2,-12(fp)
  8027f8:	10804e43 	ldbu	r2,313(r2)
  8027fc:	10803fcc 	andi	r2,r2,255
  802800:	1080201c 	xori	r2,r2,128
  802804:	10bfe004 	addi	r2,r2,-128
  802808:	10002026 	beq	r2,zero,80288c <logic+0x23c8>
  80280c:	e0bffd17 	ldw	r2,-12(fp)
  802810:	10803003 	ldbu	r2,192(r2)
  802814:	10803fcc 	andi	r2,r2,255
  802818:	1080201c 	xori	r2,r2,128
  80281c:	10bfe004 	addi	r2,r2,-128
  802820:	1000061e 	bne	r2,zero,80283c <logic+0x2378>
  802824:	e0bffd17 	ldw	r2,-12(fp)
  802828:	10803203 	ldbu	r2,200(r2)
  80282c:	10803fcc 	andi	r2,r2,255
  802830:	1080201c 	xori	r2,r2,128
  802834:	10bfe004 	addi	r2,r2,-128
  802838:	10001426 	beq	r2,zero,80288c <logic+0x23c8>
  80283c:	e0bffd17 	ldw	r2,-12(fp)
  802840:	10804dc3 	ldbu	r2,311(r2)
  802844:	10803fcc 	andi	r2,r2,255
  802848:	1080201c 	xori	r2,r2,128
  80284c:	10bfe004 	addi	r2,r2,-128
  802850:	10000c1e 	bne	r2,zero,802884 <logic+0x23c0>
  802854:	e0bffd17 	ldw	r2,-12(fp)
  802858:	10804e43 	ldbu	r2,313(r2)
  80285c:	10803fcc 	andi	r2,r2,255
  802860:	1080201c 	xori	r2,r2,128
  802864:	10bfe004 	addi	r2,r2,-128
  802868:	1000061e 	bne	r2,zero,802884 <logic+0x23c0>
  80286c:	e0bffd17 	ldw	r2,-12(fp)
  802870:	10803203 	ldbu	r2,200(r2)
  802874:	10803fcc 	andi	r2,r2,255
  802878:	1080201c 	xori	r2,r2,128
  80287c:	10bfe004 	addi	r2,r2,-128
  802880:	10000226 	beq	r2,zero,80288c <logic+0x23c8>
  802884:	00800044 	movi	r2,1
  802888:	00000106 	br	802890 <logic+0x23cc>
  80288c:	0005883a 	mov	r2,zero
  802890:	1007883a 	mov	r3,r2
  802894:	e0bffd17 	ldw	r2,-12(fp)
  802898:	10c03285 	stb	r3,202(r2)
  d->_cg189 = d->_pacemaker_local__Atrig6;
  80289c:	e0bffd17 	ldw	r2,-12(fp)
  8028a0:	10c00e43 	ldbu	r3,57(r2)
  8028a4:	e0bffd17 	ldw	r2,-12(fp)
  8028a8:	10c04445 	stb	r3,273(r2)
  d->_g180 = d->_g177 && !d->_cg189;
  8028ac:	e0bffd17 	ldw	r2,-12(fp)
  8028b0:	10803283 	ldbu	r2,202(r2)
  8028b4:	10803fcc 	andi	r2,r2,255
  8028b8:	1080201c 	xori	r2,r2,128
  8028bc:	10bfe004 	addi	r2,r2,-128
  8028c0:	10000826 	beq	r2,zero,8028e4 <logic+0x2420>
  8028c4:	e0bffd17 	ldw	r2,-12(fp)
  8028c8:	10804443 	ldbu	r2,273(r2)
  8028cc:	10803fcc 	andi	r2,r2,255
  8028d0:	1080201c 	xori	r2,r2,128
  8028d4:	10bfe004 	addi	r2,r2,-128
  8028d8:	1000021e 	bne	r2,zero,8028e4 <logic+0x2420>
  8028dc:	00800044 	movi	r2,1
  8028e0:	00000106 	br	8028e8 <logic+0x2424>
  8028e4:	0005883a 	mov	r2,zero
  8028e8:	1007883a 	mov	r3,r2
  8028ec:	e0bffd17 	ldw	r2,-12(fp)
  8028f0:	10c032c5 	stb	r3,203(r2)
  if (d->_g180) {
  8028f4:	e0bffd17 	ldw	r2,-12(fp)
  8028f8:	108032c3 	ldbu	r2,203(r2)
  8028fc:	10803fcc 	andi	r2,r2,255
  802900:	1080201c 	xori	r2,r2,128
  802904:	10bfe004 	addi	r2,r2,-128
  802908:	10000626 	beq	r2,zero,802924 <logic+0x2460>
    d->VP |= 1;
  80290c:	e0bffd17 	ldw	r2,-12(fp)
  802910:	10800bc3 	ldbu	r2,47(r2)
  802914:	10800054 	ori	r2,r2,1
  802918:	1007883a 	mov	r3,r2
  80291c:	e0bffd17 	ldw	r2,-12(fp)
  802920:	10c00bc5 	stb	r3,47(r2)
  }
  d->_g185 = d->_pg47_e3;
  802924:	e0bffd17 	ldw	r2,-12(fp)
  802928:	10c054c3 	ldbu	r3,339(r2)
  80292c:	e0bffd17 	ldw	r2,-12(fp)
  802930:	10c03385 	stb	r3,206(r2)
  d->_cg28 = d->VS || d->VP;
  802934:	e0bffd17 	ldw	r2,-12(fp)
  802938:	10800a43 	ldbu	r2,41(r2)
  80293c:	10803fcc 	andi	r2,r2,255
  802940:	1080201c 	xori	r2,r2,128
  802944:	10bfe004 	addi	r2,r2,-128
  802948:	1000061e 	bne	r2,zero,802964 <logic+0x24a0>
  80294c:	e0bffd17 	ldw	r2,-12(fp)
  802950:	10800bc3 	ldbu	r2,47(r2)
  802954:	10803fcc 	andi	r2,r2,255
  802958:	1080201c 	xori	r2,r2,128
  80295c:	10bfe004 	addi	r2,r2,-128
  802960:	10000226 	beq	r2,zero,80296c <logic+0x24a8>
  802964:	00800044 	movi	r2,1
  802968:	00000106 	br	802970 <logic+0x24ac>
  80296c:	0005883a 	mov	r2,zero
  802970:	1007883a 	mov	r3,r2
  802974:	e0bffd17 	ldw	r2,-12(fp)
  802978:	10c03885 	stb	r3,226(r2)
  d->_g186 = d->_g185 && d->_cg28;
  80297c:	e0bffd17 	ldw	r2,-12(fp)
  802980:	10803383 	ldbu	r2,206(r2)
  802984:	10803fcc 	andi	r2,r2,255
  802988:	1080201c 	xori	r2,r2,128
  80298c:	10bfe004 	addi	r2,r2,-128
  802990:	10000826 	beq	r2,zero,8029b4 <logic+0x24f0>
  802994:	e0bffd17 	ldw	r2,-12(fp)
  802998:	10803883 	ldbu	r2,226(r2)
  80299c:	10803fcc 	andi	r2,r2,255
  8029a0:	1080201c 	xori	r2,r2,128
  8029a4:	10bfe004 	addi	r2,r2,-128
  8029a8:	10000226 	beq	r2,zero,8029b4 <logic+0x24f0>
  8029ac:	00800044 	movi	r2,1
  8029b0:	00000106 	br	8029b8 <logic+0x24f4>
  8029b4:	0005883a 	mov	r2,zero
  8029b8:	1007883a 	mov	r3,r2
  8029bc:	e0bffd17 	ldw	r2,-12(fp)
  8029c0:	10c033c5 	stb	r3,207(r2)
  if (d->_g186) {
  8029c4:	e0bffd17 	ldw	r2,-12(fp)
  8029c8:	108033c3 	ldbu	r2,207(r2)
  8029cc:	10803fcc 	andi	r2,r2,255
  8029d0:	1080201c 	xori	r2,r2,128
  8029d4:	10bfe004 	addi	r2,r2,-128
  8029d8:	10000526 	beq	r2,zero,8029f0 <logic+0x252c>
    d->_region1_null_x = 0;
  8029dc:	e0bffd17 	ldw	r2,-12(fp)
  8029e0:	10000215 	stw	zero,8(r2)
  8029e4:	10000315 	stw	zero,12(r2)
    d->_pacemaker_local__Atrig1 = 0;
  8029e8:	e0bffd17 	ldw	r2,-12(fp)
  8029ec:	10000d85 	stb	zero,54(r2)
  }
  d->_g181 = d->_g186 || d->_g20;
  8029f0:	e0bffd17 	ldw	r2,-12(fp)
  8029f4:	108033c3 	ldbu	r2,207(r2)
  8029f8:	10803fcc 	andi	r2,r2,255
  8029fc:	1080201c 	xori	r2,r2,128
  802a00:	10bfe004 	addi	r2,r2,-128
  802a04:	1000061e 	bne	r2,zero,802a20 <logic+0x255c>
  802a08:	e0bffd17 	ldw	r2,-12(fp)
  802a0c:	10801a03 	ldbu	r2,104(r2)
  802a10:	10803fcc 	andi	r2,r2,255
  802a14:	1080201c 	xori	r2,r2,128
  802a18:	10bfe004 	addi	r2,r2,-128
  802a1c:	10000226 	beq	r2,zero,802a28 <logic+0x2564>
  802a20:	00800044 	movi	r2,1
  802a24:	00000106 	br	802a2c <logic+0x2568>
  802a28:	0005883a 	mov	r2,zero
  802a2c:	1007883a 	mov	r3,r2
  802a30:	e0bffd17 	ldw	r2,-12(fp)
  802a34:	10c03305 	stb	r3,204(r2)
  d->_cg31 = d->_pacemaker_local__Atrig1;
  802a38:	e0bffd17 	ldw	r2,-12(fp)
  802a3c:	10c00d83 	ldbu	r3,54(r2)
  802a40:	e0bffd17 	ldw	r2,-12(fp)
  802a44:	10c038c5 	stb	r3,227(r2)
  d->_g181_e2 = d->_g181 && !d->_cg31;
  802a48:	e0bffd17 	ldw	r2,-12(fp)
  802a4c:	10803303 	ldbu	r2,204(r2)
  802a50:	10803fcc 	andi	r2,r2,255
  802a54:	1080201c 	xori	r2,r2,128
  802a58:	10bfe004 	addi	r2,r2,-128
  802a5c:	10000826 	beq	r2,zero,802a80 <logic+0x25bc>
  802a60:	e0bffd17 	ldw	r2,-12(fp)
  802a64:	108038c3 	ldbu	r2,227(r2)
  802a68:	10803fcc 	andi	r2,r2,255
  802a6c:	1080201c 	xori	r2,r2,128
  802a70:	10bfe004 	addi	r2,r2,-128
  802a74:	1000021e 	bne	r2,zero,802a80 <logic+0x25bc>
  802a78:	00800044 	movi	r2,1
  802a7c:	00000106 	br	802a84 <logic+0x25c0>
  802a80:	0005883a 	mov	r2,zero
  802a84:	1007883a 	mov	r3,r2
  802a88:	e0bffd17 	ldw	r2,-12(fp)
  802a8c:	10c04ec5 	stb	r3,315(r2)
  d->_g187 = !d->_g181_e2;
  802a90:	e0bffd17 	ldw	r2,-12(fp)
  802a94:	10804ec3 	ldbu	r2,315(r2)
  802a98:	10803fcc 	andi	r2,r2,255
  802a9c:	1080201c 	xori	r2,r2,128
  802aa0:	10bfe004 	addi	r2,r2,-128
  802aa4:	1005003a 	cmpeq	r2,r2,zero
  802aa8:	1007883a 	mov	r3,r2
  802aac:	e0bffd17 	ldw	r2,-12(fp)
  802ab0:	10c03405 	stb	r3,208(r2)
  d->_g176 = d->_g181 && d->_cg31;
  802ab4:	e0bffd17 	ldw	r2,-12(fp)
  802ab8:	10803303 	ldbu	r2,204(r2)
  802abc:	10803fcc 	andi	r2,r2,255
  802ac0:	1080201c 	xori	r2,r2,128
  802ac4:	10bfe004 	addi	r2,r2,-128
  802ac8:	10000826 	beq	r2,zero,802aec <logic+0x2628>
  802acc:	e0bffd17 	ldw	r2,-12(fp)
  802ad0:	108038c3 	ldbu	r2,227(r2)
  802ad4:	10803fcc 	andi	r2,r2,255
  802ad8:	1080201c 	xori	r2,r2,128
  802adc:	10bfe004 	addi	r2,r2,-128
  802ae0:	10000226 	beq	r2,zero,802aec <logic+0x2628>
  802ae4:	00800044 	movi	r2,1
  802ae8:	00000106 	br	802af0 <logic+0x262c>
  802aec:	0005883a 	mov	r2,zero
  802af0:	1007883a 	mov	r3,r2
  802af4:	e0bffd17 	ldw	r2,-12(fp)
  802af8:	10c03245 	stb	r3,201(r2)
  d->_g187_e3 = d->_pg36;
  802afc:	e0bffd17 	ldw	r2,-12(fp)
  802b00:	10c05503 	ldbu	r3,340(r2)
  802b04:	e0bffd17 	ldw	r2,-12(fp)
  802b08:	10c04f05 	stb	r3,316(r2)
  d->_g176_e1 = d->_pg40;
  802b0c:	e0bffd17 	ldw	r2,-12(fp)
  802b10:	10c05543 	ldbu	r3,341(r2)
  802b14:	e0bffd17 	ldw	r2,-12(fp)
  802b18:	10c04e85 	stb	r3,314(r2)
  d->_g34 = d->_g186 || d->_g187_e3 || d->_g176_e1;
  802b1c:	e0bffd17 	ldw	r2,-12(fp)
  802b20:	108033c3 	ldbu	r2,207(r2)
  802b24:	10803fcc 	andi	r2,r2,255
  802b28:	1080201c 	xori	r2,r2,128
  802b2c:	10bfe004 	addi	r2,r2,-128
  802b30:	10000c1e 	bne	r2,zero,802b64 <logic+0x26a0>
  802b34:	e0bffd17 	ldw	r2,-12(fp)
  802b38:	10804f03 	ldbu	r2,316(r2)
  802b3c:	10803fcc 	andi	r2,r2,255
  802b40:	1080201c 	xori	r2,r2,128
  802b44:	10bfe004 	addi	r2,r2,-128
  802b48:	1000061e 	bne	r2,zero,802b64 <logic+0x26a0>
  802b4c:	e0bffd17 	ldw	r2,-12(fp)
  802b50:	10804e83 	ldbu	r2,314(r2)
  802b54:	10803fcc 	andi	r2,r2,255
  802b58:	1080201c 	xori	r2,r2,128
  802b5c:	10bfe004 	addi	r2,r2,-128
  802b60:	10000226 	beq	r2,zero,802b6c <logic+0x26a8>
  802b64:	00800044 	movi	r2,1
  802b68:	00000106 	br	802b70 <logic+0x26ac>
  802b6c:	0005883a 	mov	r2,zero
  802b70:	1007883a 	mov	r3,r2
  802b74:	e0bffd17 	ldw	r2,-12(fp)
  802b78:	10c01c45 	stb	r3,113(r2)
  d->_cg36 = d->_region1_null_x < PVARP_VALUE;
  802b7c:	e13ffd17 	ldw	r4,-12(fp)
  802b80:	20800217 	ldw	r2,8(r4)
  802b84:	20c00317 	ldw	r3,12(r4)
  802b88:	04000044 	movi	r16,1
  802b8c:	000d883a 	mov	r6,zero
  802b90:	01d01274 	movhi	r7,16457
  802b94:	1009883a 	mov	r4,r2
  802b98:	180b883a 	mov	r5,r3
  802b9c:	08065e40 	call	8065e4 <__ledf2>
  802ba0:	10000116 	blt	r2,zero,802ba8 <logic+0x26e4>
  802ba4:	0021883a 	mov	r16,zero
  802ba8:	8007883a 	mov	r3,r16
  802bac:	e0bffd17 	ldw	r2,-12(fp)
  802bb0:	10c03905 	stb	r3,228(r2)
  d->_g31 = d->_g34 && !d->_cg36;
  802bb4:	e0bffd17 	ldw	r2,-12(fp)
  802bb8:	10801c43 	ldbu	r2,113(r2)
  802bbc:	10803fcc 	andi	r2,r2,255
  802bc0:	1080201c 	xori	r2,r2,128
  802bc4:	10bfe004 	addi	r2,r2,-128
  802bc8:	10000826 	beq	r2,zero,802bec <logic+0x2728>
  802bcc:	e0bffd17 	ldw	r2,-12(fp)
  802bd0:	10803903 	ldbu	r2,228(r2)
  802bd4:	10803fcc 	andi	r2,r2,255
  802bd8:	1080201c 	xori	r2,r2,128
  802bdc:	10bfe004 	addi	r2,r2,-128
  802be0:	1000021e 	bne	r2,zero,802bec <logic+0x2728>
  802be4:	00800044 	movi	r2,1
  802be8:	00000106 	br	802bf0 <logic+0x272c>
  802bec:	0005883a 	mov	r2,zero
  802bf0:	1007883a 	mov	r3,r2
  802bf4:	e0bffd17 	ldw	r2,-12(fp)
  802bf8:	10c01bc5 	stb	r3,111(r2)
  d->_cg41 = d->_pacemaker_local__Atrig1;
  802bfc:	e0bffd17 	ldw	r2,-12(fp)
  802c00:	10c00d83 	ldbu	r3,54(r2)
  802c04:	e0bffd17 	ldw	r2,-12(fp)
  802c08:	10c03985 	stb	r3,230(r2)
  d->_g40 = d->_g31 && !d->_cg41;
  802c0c:	e0bffd17 	ldw	r2,-12(fp)
  802c10:	10801bc3 	ldbu	r2,111(r2)
  802c14:	10803fcc 	andi	r2,r2,255
  802c18:	1080201c 	xori	r2,r2,128
  802c1c:	10bfe004 	addi	r2,r2,-128
  802c20:	10000826 	beq	r2,zero,802c44 <logic+0x2780>
  802c24:	e0bffd17 	ldw	r2,-12(fp)
  802c28:	10803983 	ldbu	r2,230(r2)
  802c2c:	10803fcc 	andi	r2,r2,255
  802c30:	1080201c 	xori	r2,r2,128
  802c34:	10bfe004 	addi	r2,r2,-128
  802c38:	1000021e 	bne	r2,zero,802c44 <logic+0x2780>
  802c3c:	00800044 	movi	r2,1
  802c40:	00000106 	br	802c48 <logic+0x2784>
  802c44:	0005883a 	mov	r2,zero
  802c48:	1007883a 	mov	r3,r2
  802c4c:	e0bffd17 	ldw	r2,-12(fp)
  802c50:	10c01d45 	stb	r3,117(r2)
  d->_g43 = d->_g34 && d->_cg36;
  802c54:	e0bffd17 	ldw	r2,-12(fp)
  802c58:	10801c43 	ldbu	r2,113(r2)
  802c5c:	10803fcc 	andi	r2,r2,255
  802c60:	1080201c 	xori	r2,r2,128
  802c64:	10bfe004 	addi	r2,r2,-128
  802c68:	10000826 	beq	r2,zero,802c8c <logic+0x27c8>
  802c6c:	e0bffd17 	ldw	r2,-12(fp)
  802c70:	10803903 	ldbu	r2,228(r2)
  802c74:	10803fcc 	andi	r2,r2,255
  802c78:	1080201c 	xori	r2,r2,128
  802c7c:	10bfe004 	addi	r2,r2,-128
  802c80:	10000226 	beq	r2,zero,802c8c <logic+0x27c8>
  802c84:	00800044 	movi	r2,1
  802c88:	00000106 	br	802c90 <logic+0x27cc>
  802c8c:	0005883a 	mov	r2,zero
  802c90:	1007883a 	mov	r3,r2
  802c94:	e0bffd17 	ldw	r2,-12(fp)
  802c98:	10c01dc5 	stb	r3,119(r2)
  if (d->_g43) {
  802c9c:	e0bffd17 	ldw	r2,-12(fp)
  802ca0:	10801dc3 	ldbu	r2,119(r2)
  802ca4:	10803fcc 	andi	r2,r2,255
  802ca8:	1080201c 	xori	r2,r2,128
  802cac:	10bfe004 	addi	r2,r2,-128
  802cb0:	10002826 	beq	r2,zero,802d54 <logic+0x2890>
    d->sleepT = (d->sleepT < (PVARP_VALUE - d->_region1_null_x)) ? d->sleepT : (PVARP_VALUE - d->_region1_null_x);
  802cb4:	e0bffd17 	ldw	r2,-12(fp)
  802cb8:	14000817 	ldw	r16,32(r2)
  802cbc:	14400917 	ldw	r17,36(r2)
  802cc0:	e13ffd17 	ldw	r4,-12(fp)
  802cc4:	20800217 	ldw	r2,8(r4)
  802cc8:	20c00317 	ldw	r3,12(r4)
  802ccc:	100d883a 	mov	r6,r2
  802cd0:	180f883a 	mov	r7,r3
  802cd4:	0009883a 	mov	r4,zero
  802cd8:	01501274 	movhi	r5,16457
  802cdc:	0806df00 	call	806df0 <__subdf3>
  802ce0:	1009883a 	mov	r4,r2
  802ce4:	180b883a 	mov	r5,r3
  802ce8:	2005883a 	mov	r2,r4
  802cec:	2807883a 	mov	r3,r5
  802cf0:	100d883a 	mov	r6,r2
  802cf4:	180f883a 	mov	r7,r3
  802cf8:	8009883a 	mov	r4,r16
  802cfc:	880b883a 	mov	r5,r17
  802d00:	08065e40 	call	8065e4 <__ledf2>
  802d04:	1000040e 	bge	r2,zero,802d18 <logic+0x2854>
  802d08:	e13ffd17 	ldw	r4,-12(fp)
  802d0c:	20800817 	ldw	r2,32(r4)
  802d10:	20c00917 	ldw	r3,36(r4)
  802d14:	00000c06 	br	802d48 <logic+0x2884>
  802d18:	e13ffd17 	ldw	r4,-12(fp)
  802d1c:	20800217 	ldw	r2,8(r4)
  802d20:	20c00317 	ldw	r3,12(r4)
  802d24:	100d883a 	mov	r6,r2
  802d28:	180f883a 	mov	r7,r3
  802d2c:	0009883a 	mov	r4,zero
  802d30:	01501274 	movhi	r5,16457
  802d34:	0806df00 	call	806df0 <__subdf3>
  802d38:	1009883a 	mov	r4,r2
  802d3c:	180b883a 	mov	r5,r3
  802d40:	2005883a 	mov	r2,r4
  802d44:	2807883a 	mov	r3,r5
  802d48:	e13ffd17 	ldw	r4,-12(fp)
  802d4c:	20800815 	stw	r2,32(r4)
  802d50:	20c00915 	stw	r3,36(r4)
  }
  d->_cg37 = d->_pacemaker_local__Atrig1;
  802d54:	e0bffd17 	ldw	r2,-12(fp)
  802d58:	10c00d83 	ldbu	r3,54(r2)
  802d5c:	e0bffd17 	ldw	r2,-12(fp)
  802d60:	10c03945 	stb	r3,229(r2)
  d->_g36 = d->_g43 && !d->_cg37;
  802d64:	e0bffd17 	ldw	r2,-12(fp)
  802d68:	10801dc3 	ldbu	r2,119(r2)
  802d6c:	10803fcc 	andi	r2,r2,255
  802d70:	1080201c 	xori	r2,r2,128
  802d74:	10bfe004 	addi	r2,r2,-128
  802d78:	10000826 	beq	r2,zero,802d9c <logic+0x28d8>
  802d7c:	e0bffd17 	ldw	r2,-12(fp)
  802d80:	10803943 	ldbu	r2,229(r2)
  802d84:	10803fcc 	andi	r2,r2,255
  802d88:	1080201c 	xori	r2,r2,128
  802d8c:	10bfe004 	addi	r2,r2,-128
  802d90:	1000021e 	bne	r2,zero,802d9c <logic+0x28d8>
  802d94:	00800044 	movi	r2,1
  802d98:	00000106 	br	802da0 <logic+0x28dc>
  802d9c:	0005883a 	mov	r2,zero
  802da0:	1007883a 	mov	r3,r2
  802da4:	e0bffd17 	ldw	r2,-12(fp)
  802da8:	10c01c85 	stb	r3,114(r2)
  d->_g38_e2 = !(d->_g40 || d->_g36);
  802dac:	e0bffd17 	ldw	r2,-12(fp)
  802db0:	10801d43 	ldbu	r2,117(r2)
  802db4:	10803fcc 	andi	r2,r2,255
  802db8:	1080201c 	xori	r2,r2,128
  802dbc:	10bfe004 	addi	r2,r2,-128
  802dc0:	1000081e 	bne	r2,zero,802de4 <logic+0x2920>
  802dc4:	e0bffd17 	ldw	r2,-12(fp)
  802dc8:	10801c83 	ldbu	r2,114(r2)
  802dcc:	10803fcc 	andi	r2,r2,255
  802dd0:	1080201c 	xori	r2,r2,128
  802dd4:	10bfe004 	addi	r2,r2,-128
  802dd8:	1000021e 	bne	r2,zero,802de4 <logic+0x2920>
  802ddc:	00800044 	movi	r2,1
  802de0:	00000106 	br	802de8 <logic+0x2924>
  802de4:	0005883a 	mov	r2,zero
  802de8:	1007883a 	mov	r3,r2
  802dec:	e0bffd17 	ldw	r2,-12(fp)
  802df0:	10c04a05 	stb	r3,296(r2)
  d->_g37 = d->_g43 && d->_cg37 || d->_g31 && d->_cg41;
  802df4:	e0bffd17 	ldw	r2,-12(fp)
  802df8:	10801dc3 	ldbu	r2,119(r2)
  802dfc:	10803fcc 	andi	r2,r2,255
  802e00:	1080201c 	xori	r2,r2,128
  802e04:	10bfe004 	addi	r2,r2,-128
  802e08:	10000626 	beq	r2,zero,802e24 <logic+0x2960>
  802e0c:	e0bffd17 	ldw	r2,-12(fp)
  802e10:	10803943 	ldbu	r2,229(r2)
  802e14:	10803fcc 	andi	r2,r2,255
  802e18:	1080201c 	xori	r2,r2,128
  802e1c:	10bfe004 	addi	r2,r2,-128
  802e20:	10000c1e 	bne	r2,zero,802e54 <logic+0x2990>
  802e24:	e0bffd17 	ldw	r2,-12(fp)
  802e28:	10801bc3 	ldbu	r2,111(r2)
  802e2c:	10803fcc 	andi	r2,r2,255
  802e30:	1080201c 	xori	r2,r2,128
  802e34:	10bfe004 	addi	r2,r2,-128
  802e38:	10000826 	beq	r2,zero,802e5c <logic+0x2998>
  802e3c:	e0bffd17 	ldw	r2,-12(fp)
  802e40:	10803983 	ldbu	r2,230(r2)
  802e44:	10803fcc 	andi	r2,r2,255
  802e48:	1080201c 	xori	r2,r2,128
  802e4c:	10bfe004 	addi	r2,r2,-128
  802e50:	10000226 	beq	r2,zero,802e5c <logic+0x2998>
  802e54:	00800044 	movi	r2,1
  802e58:	00000106 	br	802e60 <logic+0x299c>
  802e5c:	0005883a 	mov	r2,zero
  802e60:	1007883a 	mov	r3,r2
  802e64:	e0bffd17 	ldw	r2,-12(fp)
  802e68:	10c01cc5 	stb	r3,115(r2)
  d->_g41 = d->_g186 || d->_g13 && !d->_cg46;
  802e6c:	e0bffd17 	ldw	r2,-12(fp)
  802e70:	108033c3 	ldbu	r2,207(r2)
  802e74:	10803fcc 	andi	r2,r2,255
  802e78:	1080201c 	xori	r2,r2,128
  802e7c:	10bfe004 	addi	r2,r2,-128
  802e80:	10000c1e 	bne	r2,zero,802eb4 <logic+0x29f0>
  802e84:	e0bffd17 	ldw	r2,-12(fp)
  802e88:	10801903 	ldbu	r2,100(r2)
  802e8c:	10803fcc 	andi	r2,r2,255
  802e90:	1080201c 	xori	r2,r2,128
  802e94:	10bfe004 	addi	r2,r2,-128
  802e98:	10000826 	beq	r2,zero,802ebc <logic+0x29f8>
  802e9c:	e0bffd17 	ldw	r2,-12(fp)
  802ea0:	108039c3 	ldbu	r2,231(r2)
  802ea4:	10803fcc 	andi	r2,r2,255
  802ea8:	1080201c 	xori	r2,r2,128
  802eac:	10bfe004 	addi	r2,r2,-128
  802eb0:	1000021e 	bne	r2,zero,802ebc <logic+0x29f8>
  802eb4:	00800044 	movi	r2,1
  802eb8:	00000106 	br	802ec0 <logic+0x29fc>
  802ebc:	0005883a 	mov	r2,zero
  802ec0:	1007883a 	mov	r3,r2
  802ec4:	e0bffd17 	ldw	r2,-12(fp)
  802ec8:	10c01d85 	stb	r3,118(r2)
  d->_g46 = !d->_g41;
  802ecc:	e0bffd17 	ldw	r2,-12(fp)
  802ed0:	10801d83 	ldbu	r2,118(r2)
  802ed4:	10803fcc 	andi	r2,r2,255
  802ed8:	1080201c 	xori	r2,r2,128
  802edc:	10bfe004 	addi	r2,r2,-128
  802ee0:	1005003a 	cmpeq	r2,r2,zero
  802ee4:	1007883a 	mov	r3,r2
  802ee8:	e0bffd17 	ldw	r2,-12(fp)
  802eec:	10c01e05 	stb	r3,120(r2)
  d->_g29 = (d->_g187 || d->_g176) && (d->_g38_e2 || d->_g37) && (d->_g46 || d->_g5) && (d->_g176 || d->_g37 || d->_g5);
  802ef0:	e0bffd17 	ldw	r2,-12(fp)
  802ef4:	10803403 	ldbu	r2,208(r2)
  802ef8:	10803fcc 	andi	r2,r2,255
  802efc:	1080201c 	xori	r2,r2,128
  802f00:	10bfe004 	addi	r2,r2,-128
  802f04:	1000061e 	bne	r2,zero,802f20 <logic+0x2a5c>
  802f08:	e0bffd17 	ldw	r2,-12(fp)
  802f0c:	10803243 	ldbu	r2,201(r2)
  802f10:	10803fcc 	andi	r2,r2,255
  802f14:	1080201c 	xori	r2,r2,128
  802f18:	10bfe004 	addi	r2,r2,-128
  802f1c:	10002c26 	beq	r2,zero,802fd0 <logic+0x2b0c>
  802f20:	e0bffd17 	ldw	r2,-12(fp)
  802f24:	10804a03 	ldbu	r2,296(r2)
  802f28:	10803fcc 	andi	r2,r2,255
  802f2c:	1080201c 	xori	r2,r2,128
  802f30:	10bfe004 	addi	r2,r2,-128
  802f34:	1000061e 	bne	r2,zero,802f50 <logic+0x2a8c>
  802f38:	e0bffd17 	ldw	r2,-12(fp)
  802f3c:	10801cc3 	ldbu	r2,115(r2)
  802f40:	10803fcc 	andi	r2,r2,255
  802f44:	1080201c 	xori	r2,r2,128
  802f48:	10bfe004 	addi	r2,r2,-128
  802f4c:	10002026 	beq	r2,zero,802fd0 <logic+0x2b0c>
  802f50:	e0bffd17 	ldw	r2,-12(fp)
  802f54:	10801e03 	ldbu	r2,120(r2)
  802f58:	10803fcc 	andi	r2,r2,255
  802f5c:	1080201c 	xori	r2,r2,128
  802f60:	10bfe004 	addi	r2,r2,-128
  802f64:	1000061e 	bne	r2,zero,802f80 <logic+0x2abc>
  802f68:	e0bffd17 	ldw	r2,-12(fp)
  802f6c:	10801783 	ldbu	r2,94(r2)
  802f70:	10803fcc 	andi	r2,r2,255
  802f74:	1080201c 	xori	r2,r2,128
  802f78:	10bfe004 	addi	r2,r2,-128
  802f7c:	10001426 	beq	r2,zero,802fd0 <logic+0x2b0c>
  802f80:	e0bffd17 	ldw	r2,-12(fp)
  802f84:	10803243 	ldbu	r2,201(r2)
  802f88:	10803fcc 	andi	r2,r2,255
  802f8c:	1080201c 	xori	r2,r2,128
  802f90:	10bfe004 	addi	r2,r2,-128
  802f94:	10000c1e 	bne	r2,zero,802fc8 <logic+0x2b04>
  802f98:	e0bffd17 	ldw	r2,-12(fp)
  802f9c:	10801cc3 	ldbu	r2,115(r2)
  802fa0:	10803fcc 	andi	r2,r2,255
  802fa4:	1080201c 	xori	r2,r2,128
  802fa8:	10bfe004 	addi	r2,r2,-128
  802fac:	1000061e 	bne	r2,zero,802fc8 <logic+0x2b04>
  802fb0:	e0bffd17 	ldw	r2,-12(fp)
  802fb4:	10801783 	ldbu	r2,94(r2)
  802fb8:	10803fcc 	andi	r2,r2,255
  802fbc:	1080201c 	xori	r2,r2,128
  802fc0:	10bfe004 	addi	r2,r2,-128
  802fc4:	10000226 	beq	r2,zero,802fd0 <logic+0x2b0c>
  802fc8:	00800044 	movi	r2,1
  802fcc:	00000106 	br	802fd4 <logic+0x2b10>
  802fd0:	0005883a 	mov	r2,zero
  802fd4:	1007883a 	mov	r3,r2
  802fd8:	e0bffd17 	ldw	r2,-12(fp)
  802fdc:	10c01b85 	stb	r3,110(r2)
  d->_g47_e3 = d->_GO || d->_g29 || d->_g185 && !d->_cg28;
  802fe0:	e0bffd17 	ldw	r2,-12(fp)
  802fe4:	10803543 	ldbu	r2,213(r2)
  802fe8:	10803fcc 	andi	r2,r2,255
  802fec:	1080201c 	xori	r2,r2,128
  802ff0:	10bfe004 	addi	r2,r2,-128
  802ff4:	1000121e 	bne	r2,zero,803040 <logic+0x2b7c>
  802ff8:	e0bffd17 	ldw	r2,-12(fp)
  802ffc:	10801b83 	ldbu	r2,110(r2)
  803000:	10803fcc 	andi	r2,r2,255
  803004:	1080201c 	xori	r2,r2,128
  803008:	10bfe004 	addi	r2,r2,-128
  80300c:	10000c1e 	bne	r2,zero,803040 <logic+0x2b7c>
  803010:	e0bffd17 	ldw	r2,-12(fp)
  803014:	10803383 	ldbu	r2,206(r2)
  803018:	10803fcc 	andi	r2,r2,255
  80301c:	1080201c 	xori	r2,r2,128
  803020:	10bfe004 	addi	r2,r2,-128
  803024:	10000826 	beq	r2,zero,803048 <logic+0x2b84>
  803028:	e0bffd17 	ldw	r2,-12(fp)
  80302c:	10803883 	ldbu	r2,226(r2)
  803030:	10803fcc 	andi	r2,r2,255
  803034:	1080201c 	xori	r2,r2,128
  803038:	10bfe004 	addi	r2,r2,-128
  80303c:	1000021e 	bne	r2,zero,803048 <logic+0x2b84>
  803040:	00800044 	movi	r2,1
  803044:	00000106 	br	80304c <logic+0x2b88>
  803048:	0005883a 	mov	r2,zero
  80304c:	1007883a 	mov	r3,r2
  803050:	e0bffd17 	ldw	r2,-12(fp)
  803054:	10c04a45 	stb	r3,297(r2)
  d->_g38 = d->_pg32;
  803058:	e0bffd17 	ldw	r2,-12(fp)
  80305c:	10c05583 	ldbu	r3,342(r2)
  803060:	e0bffd17 	ldw	r2,-12(fp)
  803064:	10c01d05 	stb	r3,116(r2)
  d->_cg52 = d->VS || d->VP;
  803068:	e0bffd17 	ldw	r2,-12(fp)
  80306c:	10800a43 	ldbu	r2,41(r2)
  803070:	10803fcc 	andi	r2,r2,255
  803074:	1080201c 	xori	r2,r2,128
  803078:	10bfe004 	addi	r2,r2,-128
  80307c:	1000061e 	bne	r2,zero,803098 <logic+0x2bd4>
  803080:	e0bffd17 	ldw	r2,-12(fp)
  803084:	10800bc3 	ldbu	r2,47(r2)
  803088:	10803fcc 	andi	r2,r2,255
  80308c:	1080201c 	xori	r2,r2,128
  803090:	10bfe004 	addi	r2,r2,-128
  803094:	10000226 	beq	r2,zero,8030a0 <logic+0x2bdc>
  803098:	00800044 	movi	r2,1
  80309c:	00000106 	br	8030a4 <logic+0x2be0>
  8030a0:	0005883a 	mov	r2,zero
  8030a4:	1007883a 	mov	r3,r2
  8030a8:	e0bffd17 	ldw	r2,-12(fp)
  8030ac:	10c03a45 	stb	r3,233(r2)
  d->_g32 = d->_GO || d->_g70 && d->_cg71 || d->_g58_e1 || d->_g38 && !d->_cg52;
  8030b0:	e0bffd17 	ldw	r2,-12(fp)
  8030b4:	10803543 	ldbu	r2,213(r2)
  8030b8:	10803fcc 	andi	r2,r2,255
  8030bc:	1080201c 	xori	r2,r2,128
  8030c0:	10bfe004 	addi	r2,r2,-128
  8030c4:	10001e1e 	bne	r2,zero,803140 <logic+0x2c7c>
  8030c8:	e0bffd17 	ldw	r2,-12(fp)
  8030cc:	10802203 	ldbu	r2,136(r2)
  8030d0:	10803fcc 	andi	r2,r2,255
  8030d4:	1080201c 	xori	r2,r2,128
  8030d8:	10bfe004 	addi	r2,r2,-128
  8030dc:	10000626 	beq	r2,zero,8030f8 <logic+0x2c34>
  8030e0:	e0bffd17 	ldw	r2,-12(fp)
  8030e4:	10803a03 	ldbu	r2,232(r2)
  8030e8:	10803fcc 	andi	r2,r2,255
  8030ec:	1080201c 	xori	r2,r2,128
  8030f0:	10bfe004 	addi	r2,r2,-128
  8030f4:	1000121e 	bne	r2,zero,803140 <logic+0x2c7c>
  8030f8:	e0bffd17 	ldw	r2,-12(fp)
  8030fc:	10804a83 	ldbu	r2,298(r2)
  803100:	10803fcc 	andi	r2,r2,255
  803104:	1080201c 	xori	r2,r2,128
  803108:	10bfe004 	addi	r2,r2,-128
  80310c:	10000c1e 	bne	r2,zero,803140 <logic+0x2c7c>
  803110:	e0bffd17 	ldw	r2,-12(fp)
  803114:	10801d03 	ldbu	r2,116(r2)
  803118:	10803fcc 	andi	r2,r2,255
  80311c:	1080201c 	xori	r2,r2,128
  803120:	10bfe004 	addi	r2,r2,-128
  803124:	10000826 	beq	r2,zero,803148 <logic+0x2c84>
  803128:	e0bffd17 	ldw	r2,-12(fp)
  80312c:	10803a43 	ldbu	r2,233(r2)
  803130:	10803fcc 	andi	r2,r2,255
  803134:	1080201c 	xori	r2,r2,128
  803138:	10bfe004 	addi	r2,r2,-128
  80313c:	1000021e 	bne	r2,zero,803148 <logic+0x2c84>
  803140:	00800044 	movi	r2,1
  803144:	00000106 	br	80314c <logic+0x2c88>
  803148:	0005883a 	mov	r2,zero
  80314c:	1007883a 	mov	r3,r2
  803150:	e0bffd17 	ldw	r2,-12(fp)
  803154:	10c01c05 	stb	r3,112(r2)
  d->_g38_e2 = d->_g38 && d->_cg52;
  803158:	e0bffd17 	ldw	r2,-12(fp)
  80315c:	10801d03 	ldbu	r2,116(r2)
  803160:	10803fcc 	andi	r2,r2,255
  803164:	1080201c 	xori	r2,r2,128
  803168:	10bfe004 	addi	r2,r2,-128
  80316c:	10000826 	beq	r2,zero,803190 <logic+0x2ccc>
  803170:	e0bffd17 	ldw	r2,-12(fp)
  803174:	10803a43 	ldbu	r2,233(r2)
  803178:	10803fcc 	andi	r2,r2,255
  80317c:	1080201c 	xori	r2,r2,128
  803180:	10bfe004 	addi	r2,r2,-128
  803184:	10000226 	beq	r2,zero,803190 <logic+0x2ccc>
  803188:	00800044 	movi	r2,1
  80318c:	00000106 	br	803194 <logic+0x2cd0>
  803190:	0005883a 	mov	r2,zero
  803194:	1007883a 	mov	r3,r2
  803198:	e0bffd17 	ldw	r2,-12(fp)
  80319c:	10c04a05 	stb	r3,296(r2)
  if (d->_g38_e2) {
  8031a0:	e0bffd17 	ldw	r2,-12(fp)
  8031a4:	10804a03 	ldbu	r2,296(r2)
  8031a8:	10803fcc 	andi	r2,r2,255
  8031ac:	1080201c 	xori	r2,r2,128
  8031b0:	10bfe004 	addi	r2,r2,-128
  8031b4:	10000526 	beq	r2,zero,8031cc <logic+0x2d08>
    d->_region2_null_x = 0;
  8031b8:	e0bffd17 	ldw	r2,-12(fp)
  8031bc:	10000415 	stw	zero,16(r2)
  8031c0:	10000515 	stw	zero,20(r2)
    d->_pacemaker_local__Atrig2 = 0;
  8031c4:	e0bffd17 	ldw	r2,-12(fp)
  8031c8:	10000dc5 	stb	zero,55(r2)
  }
  d->_cg54 = d->_region2_null_x < AEI_VALUE;
  8031cc:	e13ffd17 	ldw	r4,-12(fp)
  8031d0:	20800417 	ldw	r2,16(r4)
  8031d4:	20c00517 	ldw	r3,20(r4)
  8031d8:	04000044 	movi	r16,1
  8031dc:	000d883a 	mov	r6,zero
  8031e0:	01d02274 	movhi	r7,16521
  8031e4:	1009883a 	mov	r4,r2
  8031e8:	180b883a 	mov	r5,r3
  8031ec:	08065e40 	call	8065e4 <__ledf2>
  8031f0:	10000116 	blt	r2,zero,8031f8 <logic+0x2d34>
  8031f4:	0021883a 	mov	r16,zero
  8031f8:	8007883a 	mov	r3,r16
  8031fc:	e0bffd17 	ldw	r2,-12(fp)
  803200:	10c03a85 	stb	r3,234(r2)
  d->_g32_e1 = d->_g38_e2 && d->_cg54;
  803204:	e0bffd17 	ldw	r2,-12(fp)
  803208:	10804a03 	ldbu	r2,296(r2)
  80320c:	10803fcc 	andi	r2,r2,255
  803210:	1080201c 	xori	r2,r2,128
  803214:	10bfe004 	addi	r2,r2,-128
  803218:	10000826 	beq	r2,zero,80323c <logic+0x2d78>
  80321c:	e0bffd17 	ldw	r2,-12(fp)
  803220:	10803a83 	ldbu	r2,234(r2)
  803224:	10803fcc 	andi	r2,r2,255
  803228:	1080201c 	xori	r2,r2,128
  80322c:	10bfe004 	addi	r2,r2,-128
  803230:	10000226 	beq	r2,zero,80323c <logic+0x2d78>
  803234:	00800044 	movi	r2,1
  803238:	00000106 	br	803240 <logic+0x2d7c>
  80323c:	0005883a 	mov	r2,zero
  803240:	1007883a 	mov	r3,r2
  803244:	e0bffd17 	ldw	r2,-12(fp)
  803248:	10c049c5 	stb	r3,295(r2)
  if (d->_g32_e1) {
  80324c:	e0bffd17 	ldw	r2,-12(fp)
  803250:	108049c3 	ldbu	r2,295(r2)
  803254:	10803fcc 	andi	r2,r2,255
  803258:	1080201c 	xori	r2,r2,128
  80325c:	10bfe004 	addi	r2,r2,-128
  803260:	10002826 	beq	r2,zero,803304 <logic+0x2e40>
    d->sleepT = (d->sleepT < (AEI_VALUE - d->_region2_null_x)) ? d->sleepT : (AEI_VALUE - d->_region2_null_x);
  803264:	e0bffd17 	ldw	r2,-12(fp)
  803268:	14000817 	ldw	r16,32(r2)
  80326c:	14400917 	ldw	r17,36(r2)
  803270:	e13ffd17 	ldw	r4,-12(fp)
  803274:	20800417 	ldw	r2,16(r4)
  803278:	20c00517 	ldw	r3,20(r4)
  80327c:	100d883a 	mov	r6,r2
  803280:	180f883a 	mov	r7,r3
  803284:	0009883a 	mov	r4,zero
  803288:	01502274 	movhi	r5,16521
  80328c:	0806df00 	call	806df0 <__subdf3>
  803290:	1009883a 	mov	r4,r2
  803294:	180b883a 	mov	r5,r3
  803298:	2005883a 	mov	r2,r4
  80329c:	2807883a 	mov	r3,r5
  8032a0:	100d883a 	mov	r6,r2
  8032a4:	180f883a 	mov	r7,r3
  8032a8:	8009883a 	mov	r4,r16
  8032ac:	880b883a 	mov	r5,r17
  8032b0:	08065e40 	call	8065e4 <__ledf2>
  8032b4:	1000040e 	bge	r2,zero,8032c8 <logic+0x2e04>
  8032b8:	e13ffd17 	ldw	r4,-12(fp)
  8032bc:	20800817 	ldw	r2,32(r4)
  8032c0:	20c00917 	ldw	r3,36(r4)
  8032c4:	00000c06 	br	8032f8 <logic+0x2e34>
  8032c8:	e13ffd17 	ldw	r4,-12(fp)
  8032cc:	20800417 	ldw	r2,16(r4)
  8032d0:	20c00517 	ldw	r3,20(r4)
  8032d4:	100d883a 	mov	r6,r2
  8032d8:	180f883a 	mov	r7,r3
  8032dc:	0009883a 	mov	r4,zero
  8032e0:	01502274 	movhi	r5,16521
  8032e4:	0806df00 	call	806df0 <__subdf3>
  8032e8:	1009883a 	mov	r4,r2
  8032ec:	180b883a 	mov	r5,r3
  8032f0:	2005883a 	mov	r2,r4
  8032f4:	2807883a 	mov	r3,r5
  8032f8:	e13ffd17 	ldw	r4,-12(fp)
  8032fc:	20800815 	stw	r2,32(r4)
  803300:	20c00915 	stw	r3,36(r4)
  }
  d->_cg55 = d->_pacemaker_local__Atrig2;
  803304:	e0bffd17 	ldw	r2,-12(fp)
  803308:	10c00dc3 	ldbu	r3,55(r2)
  80330c:	e0bffd17 	ldw	r2,-12(fp)
  803310:	10c03ac5 	stb	r3,235(r2)
  d->_g47 = d->_g32_e1 && !d->_cg55 || d->_g60 && !d->_cg60;
  803314:	e0bffd17 	ldw	r2,-12(fp)
  803318:	108049c3 	ldbu	r2,295(r2)
  80331c:	10803fcc 	andi	r2,r2,255
  803320:	1080201c 	xori	r2,r2,128
  803324:	10bfe004 	addi	r2,r2,-128
  803328:	10000626 	beq	r2,zero,803344 <logic+0x2e80>
  80332c:	e0bffd17 	ldw	r2,-12(fp)
  803330:	10803ac3 	ldbu	r2,235(r2)
  803334:	10803fcc 	andi	r2,r2,255
  803338:	1080201c 	xori	r2,r2,128
  80333c:	10bfe004 	addi	r2,r2,-128
  803340:	10000c26 	beq	r2,zero,803374 <logic+0x2eb0>
  803344:	e0bffd17 	ldw	r2,-12(fp)
  803348:	10802043 	ldbu	r2,129(r2)
  80334c:	10803fcc 	andi	r2,r2,255
  803350:	1080201c 	xori	r2,r2,128
  803354:	10bfe004 	addi	r2,r2,-128
  803358:	10000826 	beq	r2,zero,80337c <logic+0x2eb8>
  80335c:	e0bffd17 	ldw	r2,-12(fp)
  803360:	10803b03 	ldbu	r2,236(r2)
  803364:	10803fcc 	andi	r2,r2,255
  803368:	1080201c 	xori	r2,r2,128
  80336c:	10bfe004 	addi	r2,r2,-128
  803370:	1000021e 	bne	r2,zero,80337c <logic+0x2eb8>
  803374:	00800044 	movi	r2,1
  803378:	00000106 	br	803380 <logic+0x2ebc>
  80337c:	0005883a 	mov	r2,zero
  803380:	1007883a 	mov	r3,r2
  803384:	e0bffd17 	ldw	r2,-12(fp)
  803388:	10c01e45 	stb	r3,121(r2)
  d->_g48 = d->_g38_e2 && !d->_cg54;
  80338c:	e0bffd17 	ldw	r2,-12(fp)
  803390:	10804a03 	ldbu	r2,296(r2)
  803394:	10803fcc 	andi	r2,r2,255
  803398:	1080201c 	xori	r2,r2,128
  80339c:	10bfe004 	addi	r2,r2,-128
  8033a0:	10000826 	beq	r2,zero,8033c4 <logic+0x2f00>
  8033a4:	e0bffd17 	ldw	r2,-12(fp)
  8033a8:	10803a83 	ldbu	r2,234(r2)
  8033ac:	10803fcc 	andi	r2,r2,255
  8033b0:	1080201c 	xori	r2,r2,128
  8033b4:	10bfe004 	addi	r2,r2,-128
  8033b8:	1000021e 	bne	r2,zero,8033c4 <logic+0x2f00>
  8033bc:	00800044 	movi	r2,1
  8033c0:	00000106 	br	8033c8 <logic+0x2f04>
  8033c4:	0005883a 	mov	r2,zero
  8033c8:	1007883a 	mov	r3,r2
  8033cc:	e0bffd17 	ldw	r2,-12(fp)
  8033d0:	10c01e85 	stb	r3,122(r2)
  d->_cg64 = d->_pacemaker_local__Atrig2;
  8033d4:	e0bffd17 	ldw	r2,-12(fp)
  8033d8:	10c00dc3 	ldbu	r3,55(r2)
  8033dc:	e0bffd17 	ldw	r2,-12(fp)
  8033e0:	10c03c45 	stb	r3,241(r2)
  d->_g28 = d->_g59 && !d->_cg61 || d->_g48 && !d->_cg64;
  8033e4:	e0bffd17 	ldw	r2,-12(fp)
  8033e8:	10802003 	ldbu	r2,128(r2)
  8033ec:	10803fcc 	andi	r2,r2,255
  8033f0:	1080201c 	xori	r2,r2,128
  8033f4:	10bfe004 	addi	r2,r2,-128
  8033f8:	10000626 	beq	r2,zero,803414 <logic+0x2f50>
  8033fc:	e0bffd17 	ldw	r2,-12(fp)
  803400:	10803b83 	ldbu	r2,238(r2)
  803404:	10803fcc 	andi	r2,r2,255
  803408:	1080201c 	xori	r2,r2,128
  80340c:	10bfe004 	addi	r2,r2,-128
  803410:	10000c26 	beq	r2,zero,803444 <logic+0x2f80>
  803414:	e0bffd17 	ldw	r2,-12(fp)
  803418:	10801e83 	ldbu	r2,122(r2)
  80341c:	10803fcc 	andi	r2,r2,255
  803420:	1080201c 	xori	r2,r2,128
  803424:	10bfe004 	addi	r2,r2,-128
  803428:	10000826 	beq	r2,zero,80344c <logic+0x2f88>
  80342c:	e0bffd17 	ldw	r2,-12(fp)
  803430:	10803c43 	ldbu	r2,241(r2)
  803434:	10803fcc 	andi	r2,r2,255
  803438:	1080201c 	xori	r2,r2,128
  80343c:	10bfe004 	addi	r2,r2,-128
  803440:	1000021e 	bne	r2,zero,80344c <logic+0x2f88>
  803444:	00800044 	movi	r2,1
  803448:	00000106 	br	803450 <logic+0x2f8c>
  80344c:	0005883a 	mov	r2,zero
  803450:	1007883a 	mov	r3,r2
  803454:	e0bffd17 	ldw	r2,-12(fp)
  803458:	10c01b45 	stb	r3,109(r2)
  d->_g71 = d->_g38_e2 || d->_g69 && !d->_cg69;
  80345c:	e0bffd17 	ldw	r2,-12(fp)
  803460:	10804a03 	ldbu	r2,296(r2)
  803464:	10803fcc 	andi	r2,r2,255
  803468:	1080201c 	xori	r2,r2,128
  80346c:	10bfe004 	addi	r2,r2,-128
  803470:	10000c1e 	bne	r2,zero,8034a4 <logic+0x2fe0>
  803474:	e0bffd17 	ldw	r2,-12(fp)
  803478:	108021c3 	ldbu	r2,135(r2)
  80347c:	10803fcc 	andi	r2,r2,255
  803480:	1080201c 	xori	r2,r2,128
  803484:	10bfe004 	addi	r2,r2,-128
  803488:	10000826 	beq	r2,zero,8034ac <logic+0x2fe8>
  80348c:	e0bffd17 	ldw	r2,-12(fp)
  803490:	10803c83 	ldbu	r2,242(r2)
  803494:	10803fcc 	andi	r2,r2,255
  803498:	1080201c 	xori	r2,r2,128
  80349c:	10bfe004 	addi	r2,r2,-128
  8034a0:	1000021e 	bne	r2,zero,8034ac <logic+0x2fe8>
  8034a4:	00800044 	movi	r2,1
  8034a8:	00000106 	br	8034b0 <logic+0x2fec>
  8034ac:	0005883a 	mov	r2,zero
  8034b0:	1007883a 	mov	r3,r2
  8034b4:	e0bffd17 	ldw	r2,-12(fp)
  8034b8:	10c02245 	stb	r3,137(r2)
  d->_g72 = d->_pg77;
  8034bc:	e0bffd17 	ldw	r2,-12(fp)
  8034c0:	10c055c3 	ldbu	r3,343(r2)
  8034c4:	e0bffd17 	ldw	r2,-12(fp)
  8034c8:	10c02285 	stb	r3,138(r2)
  d->_cg76 = d->VS || d->VP;
  8034cc:	e0bffd17 	ldw	r2,-12(fp)
  8034d0:	10800a43 	ldbu	r2,41(r2)
  8034d4:	10803fcc 	andi	r2,r2,255
  8034d8:	1080201c 	xori	r2,r2,128
  8034dc:	10bfe004 	addi	r2,r2,-128
  8034e0:	1000061e 	bne	r2,zero,8034fc <logic+0x3038>
  8034e4:	e0bffd17 	ldw	r2,-12(fp)
  8034e8:	10800bc3 	ldbu	r2,47(r2)
  8034ec:	10803fcc 	andi	r2,r2,255
  8034f0:	1080201c 	xori	r2,r2,128
  8034f4:	10bfe004 	addi	r2,r2,-128
  8034f8:	10000226 	beq	r2,zero,803504 <logic+0x3040>
  8034fc:	00800044 	movi	r2,1
  803500:	00000106 	br	803508 <logic+0x3044>
  803504:	0005883a 	mov	r2,zero
  803508:	1007883a 	mov	r3,r2
  80350c:	e0bffd17 	ldw	r2,-12(fp)
  803510:	10c03d05 	stb	r3,244(r2)
  d->_g52 = d->_g72 && d->_cg76;
  803514:	e0bffd17 	ldw	r2,-12(fp)
  803518:	10802283 	ldbu	r2,138(r2)
  80351c:	10803fcc 	andi	r2,r2,255
  803520:	1080201c 	xori	r2,r2,128
  803524:	10bfe004 	addi	r2,r2,-128
  803528:	10000826 	beq	r2,zero,80354c <logic+0x3088>
  80352c:	e0bffd17 	ldw	r2,-12(fp)
  803530:	10803d03 	ldbu	r2,244(r2)
  803534:	10803fcc 	andi	r2,r2,255
  803538:	1080201c 	xori	r2,r2,128
  80353c:	10bfe004 	addi	r2,r2,-128
  803540:	10000226 	beq	r2,zero,80354c <logic+0x3088>
  803544:	00800044 	movi	r2,1
  803548:	00000106 	br	803550 <logic+0x308c>
  80354c:	0005883a 	mov	r2,zero
  803550:	1007883a 	mov	r3,r2
  803554:	e0bffd17 	ldw	r2,-12(fp)
  803558:	10c01ec5 	stb	r3,123(r2)
  if (d->_g52) {
  80355c:	e0bffd17 	ldw	r2,-12(fp)
  803560:	10801ec3 	ldbu	r2,123(r2)
  803564:	10803fcc 	andi	r2,r2,255
  803568:	1080201c 	xori	r2,r2,128
  80356c:	10bfe004 	addi	r2,r2,-128
  803570:	10000726 	beq	r2,zero,803590 <logic+0x30cc>
    d->_pacemaker_local_x = 0;
  803574:	e0bffd17 	ldw	r2,-12(fp)
  803578:	10000f15 	stw	zero,60(r2)
  80357c:	10001015 	stw	zero,64(r2)
    d->_pacemaker_local__CFSterm = 0;
  803580:	e0bffd17 	ldw	r2,-12(fp)
  803584:	10000c85 	stb	zero,50(r2)
    d->_pacemaker_local__Atrig3 = 0;
  803588:	e0bffd17 	ldw	r2,-12(fp)
  80358c:	10001105 	stb	zero,68(r2)
  }
  d->_g55 = d->_pg81_e1;
  803590:	e0bffd17 	ldw	r2,-12(fp)
  803594:	10c05603 	ldbu	r3,344(r2)
  803598:	e0bffd17 	ldw	r2,-12(fp)
  80359c:	10c01f45 	stb	r3,125(r2)
  if (d->_g55) {
  8035a0:	e0bffd17 	ldw	r2,-12(fp)
  8035a4:	10801f43 	ldbu	r2,125(r2)
  8035a8:	10803fcc 	andi	r2,r2,255
  8035ac:	1080201c 	xori	r2,r2,128
  8035b0:	10bfe004 	addi	r2,r2,-128
  8035b4:	10001226 	beq	r2,zero,803600 <logic+0x313c>
    d->_pacemaker_local_x += d->deltaT;
  8035b8:	e13ffd17 	ldw	r4,-12(fp)
  8035bc:	20800f17 	ldw	r2,60(r4)
  8035c0:	20c01017 	ldw	r3,64(r4)
  8035c4:	e1bffd17 	ldw	r6,-12(fp)
  8035c8:	31000617 	ldw	r4,24(r6)
  8035cc:	31400717 	ldw	r5,28(r6)
  8035d0:	200d883a 	mov	r6,r4
  8035d4:	280f883a 	mov	r7,r5
  8035d8:	1009883a 	mov	r4,r2
  8035dc:	180b883a 	mov	r5,r3
  8035e0:	0805c5c0 	call	805c5c <__adddf3>
  8035e4:	1009883a 	mov	r4,r2
  8035e8:	180b883a 	mov	r5,r3
  8035ec:	2005883a 	mov	r2,r4
  8035f0:	2807883a 	mov	r3,r5
  8035f4:	e13ffd17 	ldw	r4,-12(fp)
  8035f8:	20800f15 	stw	r2,60(r4)
  8035fc:	20c01015 	stw	r3,64(r4)
  }
  d->_g60 = d->_pg64;
  803600:	e0bffd17 	ldw	r2,-12(fp)
  803604:	10c05643 	ldbu	r3,345(r2)
  803608:	e0bffd17 	ldw	r2,-12(fp)
  80360c:	10c02045 	stb	r3,129(r2)
  d->_cg95 = d->_pacemaker_local_x >= VRP_VALUE;
  803610:	e13ffd17 	ldw	r4,-12(fp)
  803614:	20800f17 	ldw	r2,60(r4)
  803618:	20c01017 	ldw	r3,64(r4)
  80361c:	04000044 	movi	r16,1
  803620:	000d883a 	mov	r6,zero
  803624:	01d018f4 	movhi	r7,16483
  803628:	39f00004 	addi	r7,r7,-16384
  80362c:	1009883a 	mov	r4,r2
  803630:	180b883a 	mov	r5,r3
  803634:	08065080 	call	806508 <__gedf2>
  803638:	1000010e 	bge	r2,zero,803640 <logic+0x317c>
  80363c:	0021883a 	mov	r16,zero
  803640:	8007883a 	mov	r3,r16
  803644:	e0bffd17 	ldw	r2,-12(fp)
  803648:	10c03e45 	stb	r3,249(r2)
  d->_g64 = d->_g52 || d->_g60 && !d->_cg95;
  80364c:	e0bffd17 	ldw	r2,-12(fp)
  803650:	10801ec3 	ldbu	r2,123(r2)
  803654:	10803fcc 	andi	r2,r2,255
  803658:	1080201c 	xori	r2,r2,128
  80365c:	10bfe004 	addi	r2,r2,-128
  803660:	10000c1e 	bne	r2,zero,803694 <logic+0x31d0>
  803664:	e0bffd17 	ldw	r2,-12(fp)
  803668:	10802043 	ldbu	r2,129(r2)
  80366c:	10803fcc 	andi	r2,r2,255
  803670:	1080201c 	xori	r2,r2,128
  803674:	10bfe004 	addi	r2,r2,-128
  803678:	10000826 	beq	r2,zero,80369c <logic+0x31d8>
  80367c:	e0bffd17 	ldw	r2,-12(fp)
  803680:	10803e43 	ldbu	r2,249(r2)
  803684:	10803fcc 	andi	r2,r2,255
  803688:	1080201c 	xori	r2,r2,128
  80368c:	10bfe004 	addi	r2,r2,-128
  803690:	1000021e 	bne	r2,zero,80369c <logic+0x31d8>
  803694:	00800044 	movi	r2,1
  803698:	00000106 	br	8036a0 <logic+0x31dc>
  80369c:	0005883a 	mov	r2,zero
  8036a0:	1007883a 	mov	r3,r2
  8036a4:	e0bffd17 	ldw	r2,-12(fp)
  8036a8:	10c02105 	stb	r3,132(r2)
  d->_g61 = d->_g60 && d->_cg95;
  8036ac:	e0bffd17 	ldw	r2,-12(fp)
  8036b0:	10802043 	ldbu	r2,129(r2)
  8036b4:	10803fcc 	andi	r2,r2,255
  8036b8:	1080201c 	xori	r2,r2,128
  8036bc:	10bfe004 	addi	r2,r2,-128
  8036c0:	10000826 	beq	r2,zero,8036e4 <logic+0x3220>
  8036c4:	e0bffd17 	ldw	r2,-12(fp)
  8036c8:	10803e43 	ldbu	r2,249(r2)
  8036cc:	10803fcc 	andi	r2,r2,255
  8036d0:	1080201c 	xori	r2,r2,128
  8036d4:	10bfe004 	addi	r2,r2,-128
  8036d8:	10000226 	beq	r2,zero,8036e4 <logic+0x3220>
  8036dc:	00800044 	movi	r2,1
  8036e0:	00000106 	br	8036e8 <logic+0x3224>
  8036e4:	0005883a 	mov	r2,zero
  8036e8:	1007883a 	mov	r3,r2
  8036ec:	e0bffd17 	ldw	r2,-12(fp)
  8036f0:	10c02085 	stb	r3,130(r2)
  if (d->_g61) {
  8036f4:	e0bffd17 	ldw	r2,-12(fp)
  8036f8:	10802083 	ldbu	r2,130(r2)
  8036fc:	10803fcc 	andi	r2,r2,255
  803700:	1080201c 	xori	r2,r2,128
  803704:	10bfe004 	addi	r2,r2,-128
  803708:	10000326 	beq	r2,zero,803718 <logic+0x3254>
    d->_pacemaker_local__Atrig3 = 1;
  80370c:	e0bffd17 	ldw	r2,-12(fp)
  803710:	00c00044 	movi	r3,1
  803714:	10c01105 	stb	r3,68(r2)
  }
  d->_g53 = d->_g52 || d->_g83;
  803718:	e0bffd17 	ldw	r2,-12(fp)
  80371c:	10801ec3 	ldbu	r2,123(r2)
  803720:	10803fcc 	andi	r2,r2,255
  803724:	1080201c 	xori	r2,r2,128
  803728:	10bfe004 	addi	r2,r2,-128
  80372c:	1000061e 	bne	r2,zero,803748 <logic+0x3284>
  803730:	e0bffd17 	ldw	r2,-12(fp)
  803734:	108023c3 	ldbu	r2,143(r2)
  803738:	10803fcc 	andi	r2,r2,255
  80373c:	1080201c 	xori	r2,r2,128
  803740:	10bfe004 	addi	r2,r2,-128
  803744:	10000226 	beq	r2,zero,803750 <logic+0x328c>
  803748:	00800044 	movi	r2,1
  80374c:	00000106 	br	803754 <logic+0x3290>
  803750:	0005883a 	mov	r2,zero
  803754:	1007883a 	mov	r3,r2
  803758:	e0bffd17 	ldw	r2,-12(fp)
  80375c:	10c01f05 	stb	r3,124(r2)
  d->_cg80 = d->_pacemaker_local__Atrig3;
  803760:	e0bffd17 	ldw	r2,-12(fp)
  803764:	10c01103 	ldbu	r3,68(r2)
  803768:	e0bffd17 	ldw	r2,-12(fp)
  80376c:	10c03d45 	stb	r3,245(r2)
  d->_g69 = d->_g53 && !d->_cg80;
  803770:	e0bffd17 	ldw	r2,-12(fp)
  803774:	10801f03 	ldbu	r2,124(r2)
  803778:	10803fcc 	andi	r2,r2,255
  80377c:	1080201c 	xori	r2,r2,128
  803780:	10bfe004 	addi	r2,r2,-128
  803784:	10000826 	beq	r2,zero,8037a8 <logic+0x32e4>
  803788:	e0bffd17 	ldw	r2,-12(fp)
  80378c:	10803d43 	ldbu	r2,245(r2)
  803790:	10803fcc 	andi	r2,r2,255
  803794:	1080201c 	xori	r2,r2,128
  803798:	10bfe004 	addi	r2,r2,-128
  80379c:	1000021e 	bne	r2,zero,8037a8 <logic+0x32e4>
  8037a0:	00800044 	movi	r2,1
  8037a4:	00000106 	br	8037ac <logic+0x32e8>
  8037a8:	0005883a 	mov	r2,zero
  8037ac:	1007883a 	mov	r3,r2
  8037b0:	e0bffd17 	ldw	r2,-12(fp)
  8037b4:	10c021c5 	stb	r3,135(r2)
  d->_g95 = d->_pg88;
  8037b8:	e0bffd17 	ldw	r2,-12(fp)
  8037bc:	10c05683 	ldbu	r3,346(r2)
  8037c0:	e0bffd17 	ldw	r2,-12(fp)
  8037c4:	10c02605 	stb	r3,152(r2)
  d->_g83 = d->_pg91;
  8037c8:	e0bffd17 	ldw	r2,-12(fp)
  8037cc:	10c056c3 	ldbu	r3,347(r2)
  8037d0:	e0bffd17 	ldw	r2,-12(fp)
  8037d4:	10c023c5 	stb	r3,143(r2)
  d->_g92 = d->_g52 || d->_g95 || d->_g83;
  8037d8:	e0bffd17 	ldw	r2,-12(fp)
  8037dc:	10801ec3 	ldbu	r2,123(r2)
  8037e0:	10803fcc 	andi	r2,r2,255
  8037e4:	1080201c 	xori	r2,r2,128
  8037e8:	10bfe004 	addi	r2,r2,-128
  8037ec:	10000c1e 	bne	r2,zero,803820 <logic+0x335c>
  8037f0:	e0bffd17 	ldw	r2,-12(fp)
  8037f4:	10802603 	ldbu	r2,152(r2)
  8037f8:	10803fcc 	andi	r2,r2,255
  8037fc:	1080201c 	xori	r2,r2,128
  803800:	10bfe004 	addi	r2,r2,-128
  803804:	1000061e 	bne	r2,zero,803820 <logic+0x335c>
  803808:	e0bffd17 	ldw	r2,-12(fp)
  80380c:	108023c3 	ldbu	r2,143(r2)
  803810:	10803fcc 	andi	r2,r2,255
  803814:	1080201c 	xori	r2,r2,128
  803818:	10bfe004 	addi	r2,r2,-128
  80381c:	10000226 	beq	r2,zero,803828 <logic+0x3364>
  803820:	00800044 	movi	r2,1
  803824:	00000106 	br	80382c <logic+0x3368>
  803828:	0005883a 	mov	r2,zero
  80382c:	1007883a 	mov	r3,r2
  803830:	e0bffd17 	ldw	r2,-12(fp)
  803834:	10c025c5 	stb	r3,151(r2)
  d->_cg85 = d->_pacemaker_local_x < VRP_VALUE;
  803838:	e13ffd17 	ldw	r4,-12(fp)
  80383c:	20800f17 	ldw	r2,60(r4)
  803840:	20c01017 	ldw	r3,64(r4)
  803844:	04000044 	movi	r16,1
  803848:	000d883a 	mov	r6,zero
  80384c:	01d018f4 	movhi	r7,16483
  803850:	39f00004 	addi	r7,r7,-16384
  803854:	1009883a 	mov	r4,r2
  803858:	180b883a 	mov	r5,r3
  80385c:	08065e40 	call	8065e4 <__ledf2>
  803860:	10000116 	blt	r2,zero,803868 <logic+0x33a4>
  803864:	0021883a 	mov	r16,zero
  803868:	8007883a 	mov	r3,r16
  80386c:	e0bffd17 	ldw	r2,-12(fp)
  803870:	10c03d85 	stb	r3,246(r2)
  d->_g89 = d->_g92 && !d->_cg85;
  803874:	e0bffd17 	ldw	r2,-12(fp)
  803878:	108025c3 	ldbu	r2,151(r2)
  80387c:	10803fcc 	andi	r2,r2,255
  803880:	1080201c 	xori	r2,r2,128
  803884:	10bfe004 	addi	r2,r2,-128
  803888:	10000826 	beq	r2,zero,8038ac <logic+0x33e8>
  80388c:	e0bffd17 	ldw	r2,-12(fp)
  803890:	10803d83 	ldbu	r2,246(r2)
  803894:	10803fcc 	andi	r2,r2,255
  803898:	1080201c 	xori	r2,r2,128
  80389c:	10bfe004 	addi	r2,r2,-128
  8038a0:	1000021e 	bne	r2,zero,8038ac <logic+0x33e8>
  8038a4:	00800044 	movi	r2,1
  8038a8:	00000106 	br	8038b0 <logic+0x33ec>
  8038ac:	0005883a 	mov	r2,zero
  8038b0:	1007883a 	mov	r3,r2
  8038b4:	e0bffd17 	ldw	r2,-12(fp)
  8038b8:	10c02505 	stb	r3,148(r2)
  d->_cg90 = d->_pacemaker_local__Atrig3;
  8038bc:	e0bffd17 	ldw	r2,-12(fp)
  8038c0:	10c01103 	ldbu	r3,68(r2)
  8038c4:	e0bffd17 	ldw	r2,-12(fp)
  8038c8:	10c03e05 	stb	r3,248(r2)
  d->_g91 = d->_g89 && !d->_cg90;
  8038cc:	e0bffd17 	ldw	r2,-12(fp)
  8038d0:	10802503 	ldbu	r2,148(r2)
  8038d4:	10803fcc 	andi	r2,r2,255
  8038d8:	1080201c 	xori	r2,r2,128
  8038dc:	10bfe004 	addi	r2,r2,-128
  8038e0:	10000826 	beq	r2,zero,803904 <logic+0x3440>
  8038e4:	e0bffd17 	ldw	r2,-12(fp)
  8038e8:	10803e03 	ldbu	r2,248(r2)
  8038ec:	10803fcc 	andi	r2,r2,255
  8038f0:	1080201c 	xori	r2,r2,128
  8038f4:	10bfe004 	addi	r2,r2,-128
  8038f8:	1000021e 	bne	r2,zero,803904 <logic+0x3440>
  8038fc:	00800044 	movi	r2,1
  803900:	00000106 	br	803908 <logic+0x3444>
  803904:	0005883a 	mov	r2,zero
  803908:	1007883a 	mov	r3,r2
  80390c:	e0bffd17 	ldw	r2,-12(fp)
  803910:	10c02585 	stb	r3,150(r2)
  d->_g85 = d->_g92 && d->_cg85;
  803914:	e0bffd17 	ldw	r2,-12(fp)
  803918:	108025c3 	ldbu	r2,151(r2)
  80391c:	10803fcc 	andi	r2,r2,255
  803920:	1080201c 	xori	r2,r2,128
  803924:	10bfe004 	addi	r2,r2,-128
  803928:	10000826 	beq	r2,zero,80394c <logic+0x3488>
  80392c:	e0bffd17 	ldw	r2,-12(fp)
  803930:	10803d83 	ldbu	r2,246(r2)
  803934:	10803fcc 	andi	r2,r2,255
  803938:	1080201c 	xori	r2,r2,128
  80393c:	10bfe004 	addi	r2,r2,-128
  803940:	10000226 	beq	r2,zero,80394c <logic+0x3488>
  803944:	00800044 	movi	r2,1
  803948:	00000106 	br	803950 <logic+0x348c>
  80394c:	0005883a 	mov	r2,zero
  803950:	1007883a 	mov	r3,r2
  803954:	e0bffd17 	ldw	r2,-12(fp)
  803958:	10c02405 	stb	r3,144(r2)
  if (d->_g85) {
  80395c:	e0bffd17 	ldw	r2,-12(fp)
  803960:	10802403 	ldbu	r2,144(r2)
  803964:	10803fcc 	andi	r2,r2,255
  803968:	1080201c 	xori	r2,r2,128
  80396c:	10bfe004 	addi	r2,r2,-128
  803970:	10002a26 	beq	r2,zero,803a1c <logic+0x3558>
    d->sleepT = (d->sleepT < (VRP_VALUE - d->_pacemaker_local_x)) ? d->sleepT : (VRP_VALUE - d->_pacemaker_local_x);
  803974:	e0bffd17 	ldw	r2,-12(fp)
  803978:	14000817 	ldw	r16,32(r2)
  80397c:	14400917 	ldw	r17,36(r2)
  803980:	e13ffd17 	ldw	r4,-12(fp)
  803984:	20800f17 	ldw	r2,60(r4)
  803988:	20c01017 	ldw	r3,64(r4)
  80398c:	100d883a 	mov	r6,r2
  803990:	180f883a 	mov	r7,r3
  803994:	0009883a 	mov	r4,zero
  803998:	015018f4 	movhi	r5,16483
  80399c:	29700004 	addi	r5,r5,-16384
  8039a0:	0806df00 	call	806df0 <__subdf3>
  8039a4:	1009883a 	mov	r4,r2
  8039a8:	180b883a 	mov	r5,r3
  8039ac:	2005883a 	mov	r2,r4
  8039b0:	2807883a 	mov	r3,r5
  8039b4:	100d883a 	mov	r6,r2
  8039b8:	180f883a 	mov	r7,r3
  8039bc:	8009883a 	mov	r4,r16
  8039c0:	880b883a 	mov	r5,r17
  8039c4:	08065e40 	call	8065e4 <__ledf2>
  8039c8:	1000040e 	bge	r2,zero,8039dc <logic+0x3518>
  8039cc:	e13ffd17 	ldw	r4,-12(fp)
  8039d0:	20800817 	ldw	r2,32(r4)
  8039d4:	20c00917 	ldw	r3,36(r4)
  8039d8:	00000d06 	br	803a10 <logic+0x354c>
  8039dc:	e13ffd17 	ldw	r4,-12(fp)
  8039e0:	20800f17 	ldw	r2,60(r4)
  8039e4:	20c01017 	ldw	r3,64(r4)
  8039e8:	100d883a 	mov	r6,r2
  8039ec:	180f883a 	mov	r7,r3
  8039f0:	0009883a 	mov	r4,zero
  8039f4:	015018f4 	movhi	r5,16483
  8039f8:	29700004 	addi	r5,r5,-16384
  8039fc:	0806df00 	call	806df0 <__subdf3>
  803a00:	1009883a 	mov	r4,r2
  803a04:	180b883a 	mov	r5,r3
  803a08:	2005883a 	mov	r2,r4
  803a0c:	2807883a 	mov	r3,r5
  803a10:	e13ffd17 	ldw	r4,-12(fp)
  803a14:	20800815 	stw	r2,32(r4)
  803a18:	20c00915 	stw	r3,36(r4)
  }
  d->_cg86 = d->_pacemaker_local__Atrig3;
  803a1c:	e0bffd17 	ldw	r2,-12(fp)
  803a20:	10c01103 	ldbu	r3,68(r2)
  803a24:	e0bffd17 	ldw	r2,-12(fp)
  803a28:	10c03dc5 	stb	r3,247(r2)
  d->_g88 = d->_g85 && !d->_cg86;
  803a2c:	e0bffd17 	ldw	r2,-12(fp)
  803a30:	10802403 	ldbu	r2,144(r2)
  803a34:	10803fcc 	andi	r2,r2,255
  803a38:	1080201c 	xori	r2,r2,128
  803a3c:	10bfe004 	addi	r2,r2,-128
  803a40:	10000826 	beq	r2,zero,803a64 <logic+0x35a0>
  803a44:	e0bffd17 	ldw	r2,-12(fp)
  803a48:	10803dc3 	ldbu	r2,247(r2)
  803a4c:	10803fcc 	andi	r2,r2,255
  803a50:	1080201c 	xori	r2,r2,128
  803a54:	10bfe004 	addi	r2,r2,-128
  803a58:	1000021e 	bne	r2,zero,803a64 <logic+0x35a0>
  803a5c:	00800044 	movi	r2,1
  803a60:	00000106 	br	803a68 <logic+0x35a4>
  803a64:	0005883a 	mov	r2,zero
  803a68:	1007883a 	mov	r3,r2
  803a6c:	e0bffd17 	ldw	r2,-12(fp)
  803a70:	10c024c5 	stb	r3,147(r2)
  d->_g97_e1 = !(d->_g64 || d->_g69 || d->_g91 || d->_g88);
  803a74:	e0bffd17 	ldw	r2,-12(fp)
  803a78:	10802103 	ldbu	r2,132(r2)
  803a7c:	10803fcc 	andi	r2,r2,255
  803a80:	1080201c 	xori	r2,r2,128
  803a84:	10bfe004 	addi	r2,r2,-128
  803a88:	1000141e 	bne	r2,zero,803adc <logic+0x3618>
  803a8c:	e0bffd17 	ldw	r2,-12(fp)
  803a90:	108021c3 	ldbu	r2,135(r2)
  803a94:	10803fcc 	andi	r2,r2,255
  803a98:	1080201c 	xori	r2,r2,128
  803a9c:	10bfe004 	addi	r2,r2,-128
  803aa0:	10000e1e 	bne	r2,zero,803adc <logic+0x3618>
  803aa4:	e0bffd17 	ldw	r2,-12(fp)
  803aa8:	10802583 	ldbu	r2,150(r2)
  803aac:	10803fcc 	andi	r2,r2,255
  803ab0:	1080201c 	xori	r2,r2,128
  803ab4:	10bfe004 	addi	r2,r2,-128
  803ab8:	1000081e 	bne	r2,zero,803adc <logic+0x3618>
  803abc:	e0bffd17 	ldw	r2,-12(fp)
  803ac0:	108024c3 	ldbu	r2,147(r2)
  803ac4:	10803fcc 	andi	r2,r2,255
  803ac8:	1080201c 	xori	r2,r2,128
  803acc:	10bfe004 	addi	r2,r2,-128
  803ad0:	1000021e 	bne	r2,zero,803adc <logic+0x3618>
  803ad4:	00800044 	movi	r2,1
  803ad8:	00000106 	br	803ae0 <logic+0x361c>
  803adc:	0005883a 	mov	r2,zero
  803ae0:	1007883a 	mov	r3,r2
  803ae4:	e0bffd17 	ldw	r2,-12(fp)
  803ae8:	10c04bc5 	stb	r3,303(r2)
  d->_g81_e1 = !d->_g69;
  803aec:	e0bffd17 	ldw	r2,-12(fp)
  803af0:	108021c3 	ldbu	r2,135(r2)
  803af4:	10803fcc 	andi	r2,r2,255
  803af8:	1080201c 	xori	r2,r2,128
  803afc:	10bfe004 	addi	r2,r2,-128
  803b00:	1005003a 	cmpeq	r2,r2,zero
  803b04:	1007883a 	mov	r3,r2
  803b08:	e0bffd17 	ldw	r2,-12(fp)
  803b0c:	10c04b05 	stb	r3,300(r2)
  d->_g80 = d->_g53 && d->_cg80;
  803b10:	e0bffd17 	ldw	r2,-12(fp)
  803b14:	10801f03 	ldbu	r2,124(r2)
  803b18:	10803fcc 	andi	r2,r2,255
  803b1c:	1080201c 	xori	r2,r2,128
  803b20:	10bfe004 	addi	r2,r2,-128
  803b24:	10000826 	beq	r2,zero,803b48 <logic+0x3684>
  803b28:	e0bffd17 	ldw	r2,-12(fp)
  803b2c:	10803d43 	ldbu	r2,245(r2)
  803b30:	10803fcc 	andi	r2,r2,255
  803b34:	1080201c 	xori	r2,r2,128
  803b38:	10bfe004 	addi	r2,r2,-128
  803b3c:	10000226 	beq	r2,zero,803b48 <logic+0x3684>
  803b40:	00800044 	movi	r2,1
  803b44:	00000106 	br	803b4c <logic+0x3688>
  803b48:	0005883a 	mov	r2,zero
  803b4c:	1007883a 	mov	r3,r2
  803b50:	e0bffd17 	ldw	r2,-12(fp)
  803b54:	10c02345 	stb	r3,141(r2)
  d->_g87_e2 = !(d->_g91 || d->_g88);
  803b58:	e0bffd17 	ldw	r2,-12(fp)
  803b5c:	10802583 	ldbu	r2,150(r2)
  803b60:	10803fcc 	andi	r2,r2,255
  803b64:	1080201c 	xori	r2,r2,128
  803b68:	10bfe004 	addi	r2,r2,-128
  803b6c:	1000081e 	bne	r2,zero,803b90 <logic+0x36cc>
  803b70:	e0bffd17 	ldw	r2,-12(fp)
  803b74:	108024c3 	ldbu	r2,147(r2)
  803b78:	10803fcc 	andi	r2,r2,255
  803b7c:	1080201c 	xori	r2,r2,128
  803b80:	10bfe004 	addi	r2,r2,-128
  803b84:	1000021e 	bne	r2,zero,803b90 <logic+0x36cc>
  803b88:	00800044 	movi	r2,1
  803b8c:	00000106 	br	803b94 <logic+0x36d0>
  803b90:	0005883a 	mov	r2,zero
  803b94:	1007883a 	mov	r3,r2
  803b98:	e0bffd17 	ldw	r2,-12(fp)
  803b9c:	10c04b45 	stb	r3,301(r2)
  d->_g86 = d->_g85 && d->_cg86 || d->_g89 && d->_cg90;
  803ba0:	e0bffd17 	ldw	r2,-12(fp)
  803ba4:	10802403 	ldbu	r2,144(r2)
  803ba8:	10803fcc 	andi	r2,r2,255
  803bac:	1080201c 	xori	r2,r2,128
  803bb0:	10bfe004 	addi	r2,r2,-128
  803bb4:	10000626 	beq	r2,zero,803bd0 <logic+0x370c>
  803bb8:	e0bffd17 	ldw	r2,-12(fp)
  803bbc:	10803dc3 	ldbu	r2,247(r2)
  803bc0:	10803fcc 	andi	r2,r2,255
  803bc4:	1080201c 	xori	r2,r2,128
  803bc8:	10bfe004 	addi	r2,r2,-128
  803bcc:	10000c1e 	bne	r2,zero,803c00 <logic+0x373c>
  803bd0:	e0bffd17 	ldw	r2,-12(fp)
  803bd4:	10802503 	ldbu	r2,148(r2)
  803bd8:	10803fcc 	andi	r2,r2,255
  803bdc:	1080201c 	xori	r2,r2,128
  803be0:	10bfe004 	addi	r2,r2,-128
  803be4:	10000826 	beq	r2,zero,803c08 <logic+0x3744>
  803be8:	e0bffd17 	ldw	r2,-12(fp)
  803bec:	10803e03 	ldbu	r2,248(r2)
  803bf0:	10803fcc 	andi	r2,r2,255
  803bf4:	1080201c 	xori	r2,r2,128
  803bf8:	10bfe004 	addi	r2,r2,-128
  803bfc:	10000226 	beq	r2,zero,803c08 <logic+0x3744>
  803c00:	00800044 	movi	r2,1
  803c04:	00000106 	br	803c0c <logic+0x3748>
  803c08:	0005883a 	mov	r2,zero
  803c0c:	1007883a 	mov	r3,r2
  803c10:	e0bffd17 	ldw	r2,-12(fp)
  803c14:	10c02445 	stb	r3,145(r2)
  d->_g90 = !d->_g64;
  803c18:	e0bffd17 	ldw	r2,-12(fp)
  803c1c:	10802103 	ldbu	r2,132(r2)
  803c20:	10803fcc 	andi	r2,r2,255
  803c24:	1080201c 	xori	r2,r2,128
  803c28:	10bfe004 	addi	r2,r2,-128
  803c2c:	1005003a 	cmpeq	r2,r2,zero
  803c30:	1007883a 	mov	r3,r2
  803c34:	e0bffd17 	ldw	r2,-12(fp)
  803c38:	10c02545 	stb	r3,149(r2)
  d->_g96_e3 = (d->_g81_e1 || d->_g80) && (d->_g87_e2 || d->_g86) && (d->_g90 || d->_g61) && (d->_g80 || d->_g86 || d->_g61);
  803c3c:	e0bffd17 	ldw	r2,-12(fp)
  803c40:	10804b03 	ldbu	r2,300(r2)
  803c44:	10803fcc 	andi	r2,r2,255
  803c48:	1080201c 	xori	r2,r2,128
  803c4c:	10bfe004 	addi	r2,r2,-128
  803c50:	1000061e 	bne	r2,zero,803c6c <logic+0x37a8>
  803c54:	e0bffd17 	ldw	r2,-12(fp)
  803c58:	10802343 	ldbu	r2,141(r2)
  803c5c:	10803fcc 	andi	r2,r2,255
  803c60:	1080201c 	xori	r2,r2,128
  803c64:	10bfe004 	addi	r2,r2,-128
  803c68:	10002c26 	beq	r2,zero,803d1c <logic+0x3858>
  803c6c:	e0bffd17 	ldw	r2,-12(fp)
  803c70:	10804b43 	ldbu	r2,301(r2)
  803c74:	10803fcc 	andi	r2,r2,255
  803c78:	1080201c 	xori	r2,r2,128
  803c7c:	10bfe004 	addi	r2,r2,-128
  803c80:	1000061e 	bne	r2,zero,803c9c <logic+0x37d8>
  803c84:	e0bffd17 	ldw	r2,-12(fp)
  803c88:	10802443 	ldbu	r2,145(r2)
  803c8c:	10803fcc 	andi	r2,r2,255
  803c90:	1080201c 	xori	r2,r2,128
  803c94:	10bfe004 	addi	r2,r2,-128
  803c98:	10002026 	beq	r2,zero,803d1c <logic+0x3858>
  803c9c:	e0bffd17 	ldw	r2,-12(fp)
  803ca0:	10802543 	ldbu	r2,149(r2)
  803ca4:	10803fcc 	andi	r2,r2,255
  803ca8:	1080201c 	xori	r2,r2,128
  803cac:	10bfe004 	addi	r2,r2,-128
  803cb0:	1000061e 	bne	r2,zero,803ccc <logic+0x3808>
  803cb4:	e0bffd17 	ldw	r2,-12(fp)
  803cb8:	10802083 	ldbu	r2,130(r2)
  803cbc:	10803fcc 	andi	r2,r2,255
  803cc0:	1080201c 	xori	r2,r2,128
  803cc4:	10bfe004 	addi	r2,r2,-128
  803cc8:	10001426 	beq	r2,zero,803d1c <logic+0x3858>
  803ccc:	e0bffd17 	ldw	r2,-12(fp)
  803cd0:	10802343 	ldbu	r2,141(r2)
  803cd4:	10803fcc 	andi	r2,r2,255
  803cd8:	1080201c 	xori	r2,r2,128
  803cdc:	10bfe004 	addi	r2,r2,-128
  803ce0:	10000c1e 	bne	r2,zero,803d14 <logic+0x3850>
  803ce4:	e0bffd17 	ldw	r2,-12(fp)
  803ce8:	10802443 	ldbu	r2,145(r2)
  803cec:	10803fcc 	andi	r2,r2,255
  803cf0:	1080201c 	xori	r2,r2,128
  803cf4:	10bfe004 	addi	r2,r2,-128
  803cf8:	1000061e 	bne	r2,zero,803d14 <logic+0x3850>
  803cfc:	e0bffd17 	ldw	r2,-12(fp)
  803d00:	10802083 	ldbu	r2,130(r2)
  803d04:	10803fcc 	andi	r2,r2,255
  803d08:	1080201c 	xori	r2,r2,128
  803d0c:	10bfe004 	addi	r2,r2,-128
  803d10:	10000226 	beq	r2,zero,803d1c <logic+0x3858>
  803d14:	00800044 	movi	r2,1
  803d18:	00000106 	br	803d20 <logic+0x385c>
  803d1c:	0005883a 	mov	r2,zero
  803d20:	1007883a 	mov	r3,r2
  803d24:	e0bffd17 	ldw	r2,-12(fp)
  803d28:	10c04b85 	stb	r3,302(r2)
  if (d->_g96_e3) {
  803d2c:	e0bffd17 	ldw	r2,-12(fp)
  803d30:	10804b83 	ldbu	r2,302(r2)
  803d34:	10803fcc 	andi	r2,r2,255
  803d38:	1080201c 	xori	r2,r2,128
  803d3c:	10bfe004 	addi	r2,r2,-128
  803d40:	10000326 	beq	r2,zero,803d50 <logic+0x388c>
    d->_pacemaker_local__CFSterm = 1;
  803d44:	e0bffd17 	ldw	r2,-12(fp)
  803d48:	00c00044 	movi	r3,1
  803d4c:	10c00c85 	stb	r3,50(r2)
  }
  d->_g96 = d->_g52 || d->_g55;
  803d50:	e0bffd17 	ldw	r2,-12(fp)
  803d54:	10801ec3 	ldbu	r2,123(r2)
  803d58:	10803fcc 	andi	r2,r2,255
  803d5c:	1080201c 	xori	r2,r2,128
  803d60:	10bfe004 	addi	r2,r2,-128
  803d64:	1000061e 	bne	r2,zero,803d80 <logic+0x38bc>
  803d68:	e0bffd17 	ldw	r2,-12(fp)
  803d6c:	10801f43 	ldbu	r2,125(r2)
  803d70:	10803fcc 	andi	r2,r2,255
  803d74:	1080201c 	xori	r2,r2,128
  803d78:	10bfe004 	addi	r2,r2,-128
  803d7c:	10000226 	beq	r2,zero,803d88 <logic+0x38c4>
  803d80:	00800044 	movi	r2,1
  803d84:	00000106 	br	803d8c <logic+0x38c8>
  803d88:	0005883a 	mov	r2,zero
  803d8c:	1007883a 	mov	r3,r2
  803d90:	e0bffd17 	ldw	r2,-12(fp)
  803d94:	10c02645 	stb	r3,153(r2)
  d->_cg99 = d->_pacemaker_local__CFSterm;
  803d98:	e0bffd17 	ldw	r2,-12(fp)
  803d9c:	10c00c83 	ldbu	r3,50(r2)
  803da0:	e0bffd17 	ldw	r2,-12(fp)
  803da4:	10c03e85 	stb	r3,250(r2)
  d->_g81_e1 = d->_g96 && !d->_cg99;
  803da8:	e0bffd17 	ldw	r2,-12(fp)
  803dac:	10802643 	ldbu	r2,153(r2)
  803db0:	10803fcc 	andi	r2,r2,255
  803db4:	1080201c 	xori	r2,r2,128
  803db8:	10bfe004 	addi	r2,r2,-128
  803dbc:	10000826 	beq	r2,zero,803de0 <logic+0x391c>
  803dc0:	e0bffd17 	ldw	r2,-12(fp)
  803dc4:	10803e83 	ldbu	r2,250(r2)
  803dc8:	10803fcc 	andi	r2,r2,255
  803dcc:	1080201c 	xori	r2,r2,128
  803dd0:	10bfe004 	addi	r2,r2,-128
  803dd4:	1000021e 	bne	r2,zero,803de0 <logic+0x391c>
  803dd8:	00800044 	movi	r2,1
  803ddc:	00000106 	br	803de4 <logic+0x3920>
  803de0:	0005883a 	mov	r2,zero
  803de4:	1007883a 	mov	r3,r2
  803de8:	e0bffd17 	ldw	r2,-12(fp)
  803dec:	10c04b05 	stb	r3,300(r2)
  d->_g87 = !d->_g81_e1;
  803df0:	e0bffd17 	ldw	r2,-12(fp)
  803df4:	10804b03 	ldbu	r2,300(r2)
  803df8:	10803fcc 	andi	r2,r2,255
  803dfc:	1080201c 	xori	r2,r2,128
  803e00:	10bfe004 	addi	r2,r2,-128
  803e04:	1005003a 	cmpeq	r2,r2,zero
  803e08:	1007883a 	mov	r3,r2
  803e0c:	e0bffd17 	ldw	r2,-12(fp)
  803e10:	10c02485 	stb	r3,146(r2)
  d->_g81 = d->_g96 && d->_cg99;
  803e14:	e0bffd17 	ldw	r2,-12(fp)
  803e18:	10802643 	ldbu	r2,153(r2)
  803e1c:	10803fcc 	andi	r2,r2,255
  803e20:	1080201c 	xori	r2,r2,128
  803e24:	10bfe004 	addi	r2,r2,-128
  803e28:	10000826 	beq	r2,zero,803e4c <logic+0x3988>
  803e2c:	e0bffd17 	ldw	r2,-12(fp)
  803e30:	10803e83 	ldbu	r2,250(r2)
  803e34:	10803fcc 	andi	r2,r2,255
  803e38:	1080201c 	xori	r2,r2,128
  803e3c:	10bfe004 	addi	r2,r2,-128
  803e40:	10000226 	beq	r2,zero,803e4c <logic+0x3988>
  803e44:	00800044 	movi	r2,1
  803e48:	00000106 	br	803e50 <logic+0x398c>
  803e4c:	0005883a 	mov	r2,zero
  803e50:	1007883a 	mov	r3,r2
  803e54:	e0bffd17 	ldw	r2,-12(fp)
  803e58:	10c02385 	stb	r3,142(r2)
  d->_g87_e2 = (d->_g97_e1 || d->_g96_e3) && (d->_g87 || d->_g81) && (d->_g96_e3 || d->_g81);
  803e5c:	e0bffd17 	ldw	r2,-12(fp)
  803e60:	10804bc3 	ldbu	r2,303(r2)
  803e64:	10803fcc 	andi	r2,r2,255
  803e68:	1080201c 	xori	r2,r2,128
  803e6c:	10bfe004 	addi	r2,r2,-128
  803e70:	1000061e 	bne	r2,zero,803e8c <logic+0x39c8>
  803e74:	e0bffd17 	ldw	r2,-12(fp)
  803e78:	10804b83 	ldbu	r2,302(r2)
  803e7c:	10803fcc 	andi	r2,r2,255
  803e80:	1080201c 	xori	r2,r2,128
  803e84:	10bfe004 	addi	r2,r2,-128
  803e88:	10001a26 	beq	r2,zero,803ef4 <logic+0x3a30>
  803e8c:	e0bffd17 	ldw	r2,-12(fp)
  803e90:	10802483 	ldbu	r2,146(r2)
  803e94:	10803fcc 	andi	r2,r2,255
  803e98:	1080201c 	xori	r2,r2,128
  803e9c:	10bfe004 	addi	r2,r2,-128
  803ea0:	1000061e 	bne	r2,zero,803ebc <logic+0x39f8>
  803ea4:	e0bffd17 	ldw	r2,-12(fp)
  803ea8:	10802383 	ldbu	r2,142(r2)
  803eac:	10803fcc 	andi	r2,r2,255
  803eb0:	1080201c 	xori	r2,r2,128
  803eb4:	10bfe004 	addi	r2,r2,-128
  803eb8:	10000e26 	beq	r2,zero,803ef4 <logic+0x3a30>
  803ebc:	e0bffd17 	ldw	r2,-12(fp)
  803ec0:	10804b83 	ldbu	r2,302(r2)
  803ec4:	10803fcc 	andi	r2,r2,255
  803ec8:	1080201c 	xori	r2,r2,128
  803ecc:	10bfe004 	addi	r2,r2,-128
  803ed0:	1000061e 	bne	r2,zero,803eec <logic+0x3a28>
  803ed4:	e0bffd17 	ldw	r2,-12(fp)
  803ed8:	10802383 	ldbu	r2,142(r2)
  803edc:	10803fcc 	andi	r2,r2,255
  803ee0:	1080201c 	xori	r2,r2,128
  803ee4:	10bfe004 	addi	r2,r2,-128
  803ee8:	10000226 	beq	r2,zero,803ef4 <logic+0x3a30>
  803eec:	00800044 	movi	r2,1
  803ef0:	00000106 	br	803ef8 <logic+0x3a34>
  803ef4:	0005883a 	mov	r2,zero
  803ef8:	1007883a 	mov	r3,r2
  803efc:	e0bffd17 	ldw	r2,-12(fp)
  803f00:	10c04b45 	stb	r3,301(r2)
  d->_g77 = d->_GO || d->_g87_e2 || d->_g72 && !d->_cg76;
  803f04:	e0bffd17 	ldw	r2,-12(fp)
  803f08:	10803543 	ldbu	r2,213(r2)
  803f0c:	10803fcc 	andi	r2,r2,255
  803f10:	1080201c 	xori	r2,r2,128
  803f14:	10bfe004 	addi	r2,r2,-128
  803f18:	1000121e 	bne	r2,zero,803f64 <logic+0x3aa0>
  803f1c:	e0bffd17 	ldw	r2,-12(fp)
  803f20:	10804b43 	ldbu	r2,301(r2)
  803f24:	10803fcc 	andi	r2,r2,255
  803f28:	1080201c 	xori	r2,r2,128
  803f2c:	10bfe004 	addi	r2,r2,-128
  803f30:	10000c1e 	bne	r2,zero,803f64 <logic+0x3aa0>
  803f34:	e0bffd17 	ldw	r2,-12(fp)
  803f38:	10802283 	ldbu	r2,138(r2)
  803f3c:	10803fcc 	andi	r2,r2,255
  803f40:	1080201c 	xori	r2,r2,128
  803f44:	10bfe004 	addi	r2,r2,-128
  803f48:	10000826 	beq	r2,zero,803f6c <logic+0x3aa8>
  803f4c:	e0bffd17 	ldw	r2,-12(fp)
  803f50:	10803d03 	ldbu	r2,244(r2)
  803f54:	10803fcc 	andi	r2,r2,255
  803f58:	1080201c 	xori	r2,r2,128
  803f5c:	10bfe004 	addi	r2,r2,-128
  803f60:	1000021e 	bne	r2,zero,803f6c <logic+0x3aa8>
  803f64:	00800044 	movi	r2,1
  803f68:	00000106 	br	803f70 <logic+0x3aac>
  803f6c:	0005883a 	mov	r2,zero
  803f70:	1007883a 	mov	r3,r2
  803f74:	e0bffd17 	ldw	r2,-12(fp)
  803f78:	10c02305 	stb	r3,140(r2)
  d->_g102 = d->_pg138_e2;
  803f7c:	e0bffd17 	ldw	r2,-12(fp)
  803f80:	10c05703 	ldbu	r3,348(r2)
  803f84:	e0bffd17 	ldw	r2,-12(fp)
  803f88:	10c02745 	stb	r3,157(r2)
  d->_g99 = d->_pg133_e1;
  803f8c:	e0bffd17 	ldw	r2,-12(fp)
  803f90:	10c05743 	ldbu	r3,349(r2)
  803f94:	e0bffd17 	ldw	r2,-12(fp)
  803f98:	10c026c5 	stb	r3,155(r2)
  d->_g100_e2 = d->_pg144;
  803f9c:	e0bffd17 	ldw	r2,-12(fp)
  803fa0:	10c05783 	ldbu	r3,350(r2)
  803fa4:	e0bffd17 	ldw	r2,-12(fp)
  803fa8:	10c04c05 	stb	r3,304(r2)
  d->_g97 = !(d->_g102 || d->_g112 || d->_g99 || d->_g100_e2);
  803fac:	e0bffd17 	ldw	r2,-12(fp)
  803fb0:	10802743 	ldbu	r2,157(r2)
  803fb4:	10803fcc 	andi	r2,r2,255
  803fb8:	1080201c 	xori	r2,r2,128
  803fbc:	10bfe004 	addi	r2,r2,-128
  803fc0:	1000141e 	bne	r2,zero,804014 <logic+0x3b50>
  803fc4:	e0bffd17 	ldw	r2,-12(fp)
  803fc8:	10802843 	ldbu	r2,161(r2)
  803fcc:	10803fcc 	andi	r2,r2,255
  803fd0:	1080201c 	xori	r2,r2,128
  803fd4:	10bfe004 	addi	r2,r2,-128
  803fd8:	10000e1e 	bne	r2,zero,804014 <logic+0x3b50>
  803fdc:	e0bffd17 	ldw	r2,-12(fp)
  803fe0:	108026c3 	ldbu	r2,155(r2)
  803fe4:	10803fcc 	andi	r2,r2,255
  803fe8:	1080201c 	xori	r2,r2,128
  803fec:	10bfe004 	addi	r2,r2,-128
  803ff0:	1000081e 	bne	r2,zero,804014 <logic+0x3b50>
  803ff4:	e0bffd17 	ldw	r2,-12(fp)
  803ff8:	10804c03 	ldbu	r2,304(r2)
  803ffc:	10803fcc 	andi	r2,r2,255
  804000:	1080201c 	xori	r2,r2,128
  804004:	10bfe004 	addi	r2,r2,-128
  804008:	1000021e 	bne	r2,zero,804014 <logic+0x3b50>
  80400c:	00800044 	movi	r2,1
  804010:	00000106 	br	804018 <logic+0x3b54>
  804014:	0005883a 	mov	r2,zero
  804018:	1007883a 	mov	r3,r2
  80401c:	e0bffd17 	ldw	r2,-12(fp)
  804020:	10c02685 	stb	r3,154(r2)
  d->_g100 = !d->_g112;
  804024:	e0bffd17 	ldw	r2,-12(fp)
  804028:	10802843 	ldbu	r2,161(r2)
  80402c:	10803fcc 	andi	r2,r2,255
  804030:	1080201c 	xori	r2,r2,128
  804034:	10bfe004 	addi	r2,r2,-128
  804038:	1005003a 	cmpeq	r2,r2,zero
  80403c:	1007883a 	mov	r3,r2
  804040:	e0bffd17 	ldw	r2,-12(fp)
  804044:	10c02705 	stb	r3,156(r2)
  d->_g97_e1 = d->_pg146;
  804048:	e0bffd17 	ldw	r2,-12(fp)
  80404c:	10c057c3 	ldbu	r3,351(r2)
  804050:	e0bffd17 	ldw	r2,-12(fp)
  804054:	10c04bc5 	stb	r3,303(r2)
  d->_cg137 = d->_pacemaker_local__Atrig4;
  804058:	e0bffd17 	ldw	r2,-12(fp)
  80405c:	10c00e03 	ldbu	r3,56(r2)
  804060:	e0bffd17 	ldw	r2,-12(fp)
  804064:	10c04345 	stb	r3,269(r2)
  d->_g103 = d->_g97_e1 && !d->_cg137;
  804068:	e0bffd17 	ldw	r2,-12(fp)
  80406c:	10804bc3 	ldbu	r2,303(r2)
  804070:	10803fcc 	andi	r2,r2,255
  804074:	1080201c 	xori	r2,r2,128
  804078:	10bfe004 	addi	r2,r2,-128
  80407c:	10000826 	beq	r2,zero,8040a0 <logic+0x3bdc>
  804080:	e0bffd17 	ldw	r2,-12(fp)
  804084:	10804343 	ldbu	r2,269(r2)
  804088:	10803fcc 	andi	r2,r2,255
  80408c:	1080201c 	xori	r2,r2,128
  804090:	10bfe004 	addi	r2,r2,-128
  804094:	1000021e 	bne	r2,zero,8040a0 <logic+0x3bdc>
  804098:	00800044 	movi	r2,1
  80409c:	00000106 	br	8040a4 <logic+0x3be0>
  8040a0:	0005883a 	mov	r2,zero
  8040a4:	1007883a 	mov	r3,r2
  8040a8:	e0bffd17 	ldw	r2,-12(fp)
  8040ac:	10c02785 	stb	r3,158(r2)
  if (d->_g103) {
  8040b0:	e0bffd17 	ldw	r2,-12(fp)
  8040b4:	10802783 	ldbu	r2,158(r2)
  8040b8:	10803fcc 	andi	r2,r2,255
  8040bc:	1080201c 	xori	r2,r2,128
  8040c0:	10bfe004 	addi	r2,r2,-128
  8040c4:	10001226 	beq	r2,zero,804110 <logic+0x3c4c>
    d->_pacemaker_local_x1 += d->deltaT;
  8040c8:	e13ffd17 	ldw	r4,-12(fp)
  8040cc:	20801217 	ldw	r2,72(r4)
  8040d0:	20c01317 	ldw	r3,76(r4)
  8040d4:	e1bffd17 	ldw	r6,-12(fp)
  8040d8:	31000617 	ldw	r4,24(r6)
  8040dc:	31400717 	ldw	r5,28(r6)
  8040e0:	200d883a 	mov	r6,r4
  8040e4:	280f883a 	mov	r7,r5
  8040e8:	1009883a 	mov	r4,r2
  8040ec:	180b883a 	mov	r5,r3
  8040f0:	0805c5c0 	call	805c5c <__adddf3>
  8040f4:	1009883a 	mov	r4,r2
  8040f8:	180b883a 	mov	r5,r3
  8040fc:	2005883a 	mov	r2,r4
  804100:	2807883a 	mov	r3,r5
  804104:	e13ffd17 	ldw	r4,-12(fp)
  804108:	20801215 	stw	r2,72(r4)
  80410c:	20c01315 	stw	r3,76(r4)
  }
  d->_cg128 = d->_pacemaker_local__Atrig4;
  804110:	e0bffd17 	ldw	r2,-12(fp)
  804114:	10c00e03 	ldbu	r3,56(r2)
  804118:	e0bffd17 	ldw	r2,-12(fp)
  80411c:	10c04245 	stb	r3,265(r2)
  d->_g76 = d->_g102 && !d->_cg128;
  804120:	e0bffd17 	ldw	r2,-12(fp)
  804124:	10802743 	ldbu	r2,157(r2)
  804128:	10803fcc 	andi	r2,r2,255
  80412c:	1080201c 	xori	r2,r2,128
  804130:	10bfe004 	addi	r2,r2,-128
  804134:	10000826 	beq	r2,zero,804158 <logic+0x3c94>
  804138:	e0bffd17 	ldw	r2,-12(fp)
  80413c:	10804243 	ldbu	r2,265(r2)
  804140:	10803fcc 	andi	r2,r2,255
  804144:	1080201c 	xori	r2,r2,128
  804148:	10bfe004 	addi	r2,r2,-128
  80414c:	1000021e 	bne	r2,zero,804158 <logic+0x3c94>
  804150:	00800044 	movi	r2,1
  804154:	00000106 	br	80415c <logic+0x3c98>
  804158:	0005883a 	mov	r2,zero
  80415c:	1007883a 	mov	r3,r2
  804160:	e0bffd17 	ldw	r2,-12(fp)
  804164:	10c022c5 	stb	r3,139(r2)
  d->_cg130 = d->_pacemaker_local_x1 >= URI_VALUE;
  804168:	e13ffd17 	ldw	r4,-12(fp)
  80416c:	20801217 	ldw	r2,72(r4)
  804170:	20c01317 	ldw	r3,76(r4)
  804174:	04000044 	movi	r16,1
  804178:	000d883a 	mov	r6,zero
  80417c:	01d02334 	movhi	r7,16524
  804180:	39c80004 	addi	r7,r7,8192
  804184:	1009883a 	mov	r4,r2
  804188:	180b883a 	mov	r5,r3
  80418c:	08065080 	call	806508 <__gedf2>
  804190:	1000010e 	bge	r2,zero,804198 <logic+0x3cd4>
  804194:	0021883a 	mov	r16,zero
  804198:	8007883a 	mov	r3,r16
  80419c:	e0bffd17 	ldw	r2,-12(fp)
  8041a0:	10c04205 	stb	r3,264(r2)
  d->_g131 = d->_g76 && d->_cg130;
  8041a4:	e0bffd17 	ldw	r2,-12(fp)
  8041a8:	108022c3 	ldbu	r2,139(r2)
  8041ac:	10803fcc 	andi	r2,r2,255
  8041b0:	1080201c 	xori	r2,r2,128
  8041b4:	10bfe004 	addi	r2,r2,-128
  8041b8:	10000826 	beq	r2,zero,8041dc <logic+0x3d18>
  8041bc:	e0bffd17 	ldw	r2,-12(fp)
  8041c0:	10804203 	ldbu	r2,264(r2)
  8041c4:	10803fcc 	andi	r2,r2,255
  8041c8:	1080201c 	xori	r2,r2,128
  8041cc:	10bfe004 	addi	r2,r2,-128
  8041d0:	10000226 	beq	r2,zero,8041dc <logic+0x3d18>
  8041d4:	00800044 	movi	r2,1
  8041d8:	00000106 	br	8041e0 <logic+0x3d1c>
  8041dc:	0005883a 	mov	r2,zero
  8041e0:	1007883a 	mov	r3,r2
  8041e4:	e0bffd17 	ldw	r2,-12(fp)
  8041e8:	10c02bc5 	stb	r3,175(r2)
  if (d->_g131) {
  8041ec:	e0bffd17 	ldw	r2,-12(fp)
  8041f0:	10802bc3 	ldbu	r2,175(r2)
  8041f4:	10803fcc 	andi	r2,r2,255
  8041f8:	1080201c 	xori	r2,r2,128
  8041fc:	10bfe004 	addi	r2,r2,-128
  804200:	10000326 	beq	r2,zero,804210 <logic+0x3d4c>
    d->_pacemaker_local__Atrig5 = 1;
  804204:	e0bffd17 	ldw	r2,-12(fp)
  804208:	00c00044 	movi	r3,1
  80420c:	10c01405 	stb	r3,80(r2)
  }
  d->_cg114 = d->_pacemaker_local__Atrig5;
  804210:	e0bffd17 	ldw	r2,-12(fp)
  804214:	10c01403 	ldbu	r3,80(r2)
  804218:	e0bffd17 	ldw	r2,-12(fp)
  80421c:	10c03f85 	stb	r3,254(r2)
  d->_g112 = d->_g112 && d->_cg112 || d->_g114 && d->_cg114;
  804220:	e0bffd17 	ldw	r2,-12(fp)
  804224:	10802843 	ldbu	r2,161(r2)
  804228:	10803fcc 	andi	r2,r2,255
  80422c:	1080201c 	xori	r2,r2,128
  804230:	10bfe004 	addi	r2,r2,-128
  804234:	10000626 	beq	r2,zero,804250 <logic+0x3d8c>
  804238:	e0bffd17 	ldw	r2,-12(fp)
  80423c:	10803fc3 	ldbu	r2,255(r2)
  804240:	10803fcc 	andi	r2,r2,255
  804244:	1080201c 	xori	r2,r2,128
  804248:	10bfe004 	addi	r2,r2,-128
  80424c:	10000c1e 	bne	r2,zero,804280 <logic+0x3dbc>
  804250:	e0bffd17 	ldw	r2,-12(fp)
  804254:	108028c3 	ldbu	r2,163(r2)
  804258:	10803fcc 	andi	r2,r2,255
  80425c:	1080201c 	xori	r2,r2,128
  804260:	10bfe004 	addi	r2,r2,-128
  804264:	10000826 	beq	r2,zero,804288 <logic+0x3dc4>
  804268:	e0bffd17 	ldw	r2,-12(fp)
  80426c:	10803f83 	ldbu	r2,254(r2)
  804270:	10803fcc 	andi	r2,r2,255
  804274:	1080201c 	xori	r2,r2,128
  804278:	10bfe004 	addi	r2,r2,-128
  80427c:	10000226 	beq	r2,zero,804288 <logic+0x3dc4>
  804280:	00800044 	movi	r2,1
  804284:	00000106 	br	80428c <logic+0x3dc8>
  804288:	0005883a 	mov	r2,zero
  80428c:	1007883a 	mov	r3,r2
  804290:	e0bffd17 	ldw	r2,-12(fp)
  804294:	10c02845 	stb	r3,161(r2)
  d->_g119_e2 = !(d->_g99 || d->_g100_e2);
  804298:	e0bffd17 	ldw	r2,-12(fp)
  80429c:	108026c3 	ldbu	r2,155(r2)
  8042a0:	10803fcc 	andi	r2,r2,255
  8042a4:	1080201c 	xori	r2,r2,128
  8042a8:	10bfe004 	addi	r2,r2,-128
  8042ac:	1000081e 	bne	r2,zero,8042d0 <logic+0x3e0c>
  8042b0:	e0bffd17 	ldw	r2,-12(fp)
  8042b4:	10804c03 	ldbu	r2,304(r2)
  8042b8:	10803fcc 	andi	r2,r2,255
  8042bc:	1080201c 	xori	r2,r2,128
  8042c0:	10bfe004 	addi	r2,r2,-128
  8042c4:	1000021e 	bne	r2,zero,8042d0 <logic+0x3e0c>
  8042c8:	00800044 	movi	r2,1
  8042cc:	00000106 	br	8042d4 <logic+0x3e10>
  8042d0:	0005883a 	mov	r2,zero
  8042d4:	1007883a 	mov	r3,r2
  8042d8:	e0bffd17 	ldw	r2,-12(fp)
  8042dc:	10c04c85 	stb	r3,306(r2)
  d->_cg118 = d->_pacemaker_local__Atrig4;
  8042e0:	e0bffd17 	ldw	r2,-12(fp)
  8042e4:	10c00e03 	ldbu	r3,56(r2)
  8042e8:	e0bffd17 	ldw	r2,-12(fp)
  8042ec:	10c040c5 	stb	r3,259(r2)
  d->_cg124 = d->_pacemaker_local__Atrig4;
  8042f0:	e0bffd17 	ldw	r2,-12(fp)
  8042f4:	10c00e03 	ldbu	r3,56(r2)
  8042f8:	e0bffd17 	ldw	r2,-12(fp)
  8042fc:	10c04145 	stb	r3,261(r2)
  d->_g120 = d->_g100_e2 && !d->_cg118 || d->_g99 && !d->_cg124;
  804300:	e0bffd17 	ldw	r2,-12(fp)
  804304:	10804c03 	ldbu	r2,304(r2)
  804308:	10803fcc 	andi	r2,r2,255
  80430c:	1080201c 	xori	r2,r2,128
  804310:	10bfe004 	addi	r2,r2,-128
  804314:	10000626 	beq	r2,zero,804330 <logic+0x3e6c>
  804318:	e0bffd17 	ldw	r2,-12(fp)
  80431c:	108040c3 	ldbu	r2,259(r2)
  804320:	10803fcc 	andi	r2,r2,255
  804324:	1080201c 	xori	r2,r2,128
  804328:	10bfe004 	addi	r2,r2,-128
  80432c:	10000c26 	beq	r2,zero,804360 <logic+0x3e9c>
  804330:	e0bffd17 	ldw	r2,-12(fp)
  804334:	108026c3 	ldbu	r2,155(r2)
  804338:	10803fcc 	andi	r2,r2,255
  80433c:	1080201c 	xori	r2,r2,128
  804340:	10bfe004 	addi	r2,r2,-128
  804344:	10000826 	beq	r2,zero,804368 <logic+0x3ea4>
  804348:	e0bffd17 	ldw	r2,-12(fp)
  80434c:	10804143 	ldbu	r2,261(r2)
  804350:	10803fcc 	andi	r2,r2,255
  804354:	1080201c 	xori	r2,r2,128
  804358:	10bfe004 	addi	r2,r2,-128
  80435c:	1000021e 	bne	r2,zero,804368 <logic+0x3ea4>
  804360:	00800044 	movi	r2,1
  804364:	00000106 	br	80436c <logic+0x3ea8>
  804368:	0005883a 	mov	r2,zero
  80436c:	1007883a 	mov	r3,r2
  804370:	e0bffd17 	ldw	r2,-12(fp)
  804374:	10c029c5 	stb	r3,167(r2)
  d->_cg120 = d->_pacemaker_local_x1 < URI_VALUE;
  804378:	e13ffd17 	ldw	r4,-12(fp)
  80437c:	20801217 	ldw	r2,72(r4)
  804380:	20c01317 	ldw	r3,76(r4)
  804384:	04000044 	movi	r16,1
  804388:	000d883a 	mov	r6,zero
  80438c:	01d02334 	movhi	r7,16524
  804390:	39c80004 	addi	r7,r7,8192
  804394:	1009883a 	mov	r4,r2
  804398:	180b883a 	mov	r5,r3
  80439c:	08065e40 	call	8065e4 <__ledf2>
  8043a0:	10000116 	blt	r2,zero,8043a8 <logic+0x3ee4>
  8043a4:	0021883a 	mov	r16,zero
  8043a8:	8007883a 	mov	r3,r16
  8043ac:	e0bffd17 	ldw	r2,-12(fp)
  8043b0:	10c04185 	stb	r3,262(r2)
  d->_g121 = d->_g120 && d->_cg120;
  8043b4:	e0bffd17 	ldw	r2,-12(fp)
  8043b8:	108029c3 	ldbu	r2,167(r2)
  8043bc:	10803fcc 	andi	r2,r2,255
  8043c0:	1080201c 	xori	r2,r2,128
  8043c4:	10bfe004 	addi	r2,r2,-128
  8043c8:	10000826 	beq	r2,zero,8043ec <logic+0x3f28>
  8043cc:	e0bffd17 	ldw	r2,-12(fp)
  8043d0:	10804183 	ldbu	r2,262(r2)
  8043d4:	10803fcc 	andi	r2,r2,255
  8043d8:	1080201c 	xori	r2,r2,128
  8043dc:	10bfe004 	addi	r2,r2,-128
  8043e0:	10000226 	beq	r2,zero,8043ec <logic+0x3f28>
  8043e4:	00800044 	movi	r2,1
  8043e8:	00000106 	br	8043f0 <logic+0x3f2c>
  8043ec:	0005883a 	mov	r2,zero
  8043f0:	1007883a 	mov	r3,r2
  8043f4:	e0bffd17 	ldw	r2,-12(fp)
  8043f8:	10c02a05 	stb	r3,168(r2)
  if (d->_g121) {
  8043fc:	e0bffd17 	ldw	r2,-12(fp)
  804400:	10802a03 	ldbu	r2,168(r2)
  804404:	10803fcc 	andi	r2,r2,255
  804408:	1080201c 	xori	r2,r2,128
  80440c:	10bfe004 	addi	r2,r2,-128
  804410:	10002a26 	beq	r2,zero,8044bc <logic+0x3ff8>
    d->sleepT = (d->sleepT < (URI_VALUE - d->_pacemaker_local_x1)) ? d->sleepT : (URI_VALUE - d->_pacemaker_local_x1);
  804414:	e0bffd17 	ldw	r2,-12(fp)
  804418:	14000817 	ldw	r16,32(r2)
  80441c:	14400917 	ldw	r17,36(r2)
  804420:	e13ffd17 	ldw	r4,-12(fp)
  804424:	20801217 	ldw	r2,72(r4)
  804428:	20c01317 	ldw	r3,76(r4)
  80442c:	100d883a 	mov	r6,r2
  804430:	180f883a 	mov	r7,r3
  804434:	0009883a 	mov	r4,zero
  804438:	01502334 	movhi	r5,16524
  80443c:	29480004 	addi	r5,r5,8192
  804440:	0806df00 	call	806df0 <__subdf3>
  804444:	1009883a 	mov	r4,r2
  804448:	180b883a 	mov	r5,r3
  80444c:	2005883a 	mov	r2,r4
  804450:	2807883a 	mov	r3,r5
  804454:	100d883a 	mov	r6,r2
  804458:	180f883a 	mov	r7,r3
  80445c:	8009883a 	mov	r4,r16
  804460:	880b883a 	mov	r5,r17
  804464:	08065e40 	call	8065e4 <__ledf2>
  804468:	1000040e 	bge	r2,zero,80447c <logic+0x3fb8>
  80446c:	e13ffd17 	ldw	r4,-12(fp)
  804470:	20800817 	ldw	r2,32(r4)
  804474:	20c00917 	ldw	r3,36(r4)
  804478:	00000d06 	br	8044b0 <logic+0x3fec>
  80447c:	e13ffd17 	ldw	r4,-12(fp)
  804480:	20801217 	ldw	r2,72(r4)
  804484:	20c01317 	ldw	r3,76(r4)
  804488:	100d883a 	mov	r6,r2
  80448c:	180f883a 	mov	r7,r3
  804490:	0009883a 	mov	r4,zero
  804494:	01502334 	movhi	r5,16524
  804498:	29480004 	addi	r5,r5,8192
  80449c:	0806df00 	call	806df0 <__subdf3>
  8044a0:	1009883a 	mov	r4,r2
  8044a4:	180b883a 	mov	r5,r3
  8044a8:	2005883a 	mov	r2,r4
  8044ac:	2807883a 	mov	r3,r5
  8044b0:	e13ffd17 	ldw	r4,-12(fp)
  8044b4:	20800815 	stw	r2,32(r4)
  8044b8:	20c00915 	stw	r3,36(r4)
  }
  d->_cg121 = d->_pacemaker_local__Atrig5;
  8044bc:	e0bffd17 	ldw	r2,-12(fp)
  8044c0:	10c01403 	ldbu	r3,80(r2)
  8044c4:	e0bffd17 	ldw	r2,-12(fp)
  8044c8:	10c04085 	stb	r3,258(r2)
  d->_g120 = d->_g120 && !d->_cg120;
  8044cc:	e0bffd17 	ldw	r2,-12(fp)
  8044d0:	108029c3 	ldbu	r2,167(r2)
  8044d4:	10803fcc 	andi	r2,r2,255
  8044d8:	1080201c 	xori	r2,r2,128
  8044dc:	10bfe004 	addi	r2,r2,-128
  8044e0:	10000826 	beq	r2,zero,804504 <logic+0x4040>
  8044e4:	e0bffd17 	ldw	r2,-12(fp)
  8044e8:	10804183 	ldbu	r2,262(r2)
  8044ec:	10803fcc 	andi	r2,r2,255
  8044f0:	1080201c 	xori	r2,r2,128
  8044f4:	10bfe004 	addi	r2,r2,-128
  8044f8:	1000021e 	bne	r2,zero,804504 <logic+0x4040>
  8044fc:	00800044 	movi	r2,1
  804500:	00000106 	br	804508 <logic+0x4044>
  804504:	0005883a 	mov	r2,zero
  804508:	1007883a 	mov	r3,r2
  80450c:	e0bffd17 	ldw	r2,-12(fp)
  804510:	10c029c5 	stb	r3,167(r2)
  d->_cg122 = d->_pacemaker_local__Atrig5;
  804514:	e0bffd17 	ldw	r2,-12(fp)
  804518:	10c01403 	ldbu	r3,80(r2)
  80451c:	e0bffd17 	ldw	r2,-12(fp)
  804520:	10c04105 	stb	r3,260(r2)
  d->_g124 = d->_g100_e2 && d->_cg118 || d->_g121 && d->_cg121 || d->_g120 && d->_cg122 || d->_g99 && d->_cg124;
  804524:	e0bffd17 	ldw	r2,-12(fp)
  804528:	10804c03 	ldbu	r2,304(r2)
  80452c:	10803fcc 	andi	r2,r2,255
  804530:	1080201c 	xori	r2,r2,128
  804534:	10bfe004 	addi	r2,r2,-128
  804538:	10000626 	beq	r2,zero,804554 <logic+0x4090>
  80453c:	e0bffd17 	ldw	r2,-12(fp)
  804540:	108040c3 	ldbu	r2,259(r2)
  804544:	10803fcc 	andi	r2,r2,255
  804548:	1080201c 	xori	r2,r2,128
  80454c:	10bfe004 	addi	r2,r2,-128
  804550:	1000241e 	bne	r2,zero,8045e4 <logic+0x4120>
  804554:	e0bffd17 	ldw	r2,-12(fp)
  804558:	10802a03 	ldbu	r2,168(r2)
  80455c:	10803fcc 	andi	r2,r2,255
  804560:	1080201c 	xori	r2,r2,128
  804564:	10bfe004 	addi	r2,r2,-128
  804568:	10000626 	beq	r2,zero,804584 <logic+0x40c0>
  80456c:	e0bffd17 	ldw	r2,-12(fp)
  804570:	10804083 	ldbu	r2,258(r2)
  804574:	10803fcc 	andi	r2,r2,255
  804578:	1080201c 	xori	r2,r2,128
  80457c:	10bfe004 	addi	r2,r2,-128
  804580:	1000181e 	bne	r2,zero,8045e4 <logic+0x4120>
  804584:	e0bffd17 	ldw	r2,-12(fp)
  804588:	108029c3 	ldbu	r2,167(r2)
  80458c:	10803fcc 	andi	r2,r2,255
  804590:	1080201c 	xori	r2,r2,128
  804594:	10bfe004 	addi	r2,r2,-128
  804598:	10000626 	beq	r2,zero,8045b4 <logic+0x40f0>
  80459c:	e0bffd17 	ldw	r2,-12(fp)
  8045a0:	10804103 	ldbu	r2,260(r2)
  8045a4:	10803fcc 	andi	r2,r2,255
  8045a8:	1080201c 	xori	r2,r2,128
  8045ac:	10bfe004 	addi	r2,r2,-128
  8045b0:	10000c1e 	bne	r2,zero,8045e4 <logic+0x4120>
  8045b4:	e0bffd17 	ldw	r2,-12(fp)
  8045b8:	108026c3 	ldbu	r2,155(r2)
  8045bc:	10803fcc 	andi	r2,r2,255
  8045c0:	1080201c 	xori	r2,r2,128
  8045c4:	10bfe004 	addi	r2,r2,-128
  8045c8:	10000826 	beq	r2,zero,8045ec <logic+0x4128>
  8045cc:	e0bffd17 	ldw	r2,-12(fp)
  8045d0:	10804143 	ldbu	r2,261(r2)
  8045d4:	10803fcc 	andi	r2,r2,255
  8045d8:	1080201c 	xori	r2,r2,128
  8045dc:	10bfe004 	addi	r2,r2,-128
  8045e0:	10000226 	beq	r2,zero,8045ec <logic+0x4128>
  8045e4:	00800044 	movi	r2,1
  8045e8:	00000106 	br	8045f0 <logic+0x412c>
  8045ec:	0005883a 	mov	r2,zero
  8045f0:	1007883a 	mov	r3,r2
  8045f4:	e0bffd17 	ldw	r2,-12(fp)
  8045f8:	10c02a85 	stb	r3,170(r2)
  d->_g118 = !d->_g102;
  8045fc:	e0bffd17 	ldw	r2,-12(fp)
  804600:	10802743 	ldbu	r2,157(r2)
  804604:	10803fcc 	andi	r2,r2,255
  804608:	1080201c 	xori	r2,r2,128
  80460c:	10bfe004 	addi	r2,r2,-128
  804610:	1005003a 	cmpeq	r2,r2,zero
  804614:	1007883a 	mov	r3,r2
  804618:	e0bffd17 	ldw	r2,-12(fp)
  80461c:	10c02945 	stb	r3,165(r2)
  d->_g131 = d->_g102 && d->_cg128 || d->_g131;
  804620:	e0bffd17 	ldw	r2,-12(fp)
  804624:	10802743 	ldbu	r2,157(r2)
  804628:	10803fcc 	andi	r2,r2,255
  80462c:	1080201c 	xori	r2,r2,128
  804630:	10bfe004 	addi	r2,r2,-128
  804634:	10000626 	beq	r2,zero,804650 <logic+0x418c>
  804638:	e0bffd17 	ldw	r2,-12(fp)
  80463c:	10804243 	ldbu	r2,265(r2)
  804640:	10803fcc 	andi	r2,r2,255
  804644:	1080201c 	xori	r2,r2,128
  804648:	10bfe004 	addi	r2,r2,-128
  80464c:	1000061e 	bne	r2,zero,804668 <logic+0x41a4>
  804650:	e0bffd17 	ldw	r2,-12(fp)
  804654:	10802bc3 	ldbu	r2,175(r2)
  804658:	10803fcc 	andi	r2,r2,255
  80465c:	1080201c 	xori	r2,r2,128
  804660:	10bfe004 	addi	r2,r2,-128
  804664:	10000226 	beq	r2,zero,804670 <logic+0x41ac>
  804668:	00800044 	movi	r2,1
  80466c:	00000106 	br	804674 <logic+0x41b0>
  804670:	0005883a 	mov	r2,zero
  804674:	1007883a 	mov	r3,r2
  804678:	e0bffd17 	ldw	r2,-12(fp)
  80467c:	10c02bc5 	stb	r3,175(r2)
  d->_g128 = (d->_g100 || d->_g112) && (d->_g119_e2 || d->_g124) && (d->_g118 || d->_g131) && (d->_g112 || d->_g124 || d->_g131);
  804680:	e0bffd17 	ldw	r2,-12(fp)
  804684:	10802703 	ldbu	r2,156(r2)
  804688:	10803fcc 	andi	r2,r2,255
  80468c:	1080201c 	xori	r2,r2,128
  804690:	10bfe004 	addi	r2,r2,-128
  804694:	1000061e 	bne	r2,zero,8046b0 <logic+0x41ec>
  804698:	e0bffd17 	ldw	r2,-12(fp)
  80469c:	10802843 	ldbu	r2,161(r2)
  8046a0:	10803fcc 	andi	r2,r2,255
  8046a4:	1080201c 	xori	r2,r2,128
  8046a8:	10bfe004 	addi	r2,r2,-128
  8046ac:	10002c26 	beq	r2,zero,804760 <logic+0x429c>
  8046b0:	e0bffd17 	ldw	r2,-12(fp)
  8046b4:	10804c83 	ldbu	r2,306(r2)
  8046b8:	10803fcc 	andi	r2,r2,255
  8046bc:	1080201c 	xori	r2,r2,128
  8046c0:	10bfe004 	addi	r2,r2,-128
  8046c4:	1000061e 	bne	r2,zero,8046e0 <logic+0x421c>
  8046c8:	e0bffd17 	ldw	r2,-12(fp)
  8046cc:	10802a83 	ldbu	r2,170(r2)
  8046d0:	10803fcc 	andi	r2,r2,255
  8046d4:	1080201c 	xori	r2,r2,128
  8046d8:	10bfe004 	addi	r2,r2,-128
  8046dc:	10002026 	beq	r2,zero,804760 <logic+0x429c>
  8046e0:	e0bffd17 	ldw	r2,-12(fp)
  8046e4:	10802943 	ldbu	r2,165(r2)
  8046e8:	10803fcc 	andi	r2,r2,255
  8046ec:	1080201c 	xori	r2,r2,128
  8046f0:	10bfe004 	addi	r2,r2,-128
  8046f4:	1000061e 	bne	r2,zero,804710 <logic+0x424c>
  8046f8:	e0bffd17 	ldw	r2,-12(fp)
  8046fc:	10802bc3 	ldbu	r2,175(r2)
  804700:	10803fcc 	andi	r2,r2,255
  804704:	1080201c 	xori	r2,r2,128
  804708:	10bfe004 	addi	r2,r2,-128
  80470c:	10001426 	beq	r2,zero,804760 <logic+0x429c>
  804710:	e0bffd17 	ldw	r2,-12(fp)
  804714:	10802843 	ldbu	r2,161(r2)
  804718:	10803fcc 	andi	r2,r2,255
  80471c:	1080201c 	xori	r2,r2,128
  804720:	10bfe004 	addi	r2,r2,-128
  804724:	10000c1e 	bne	r2,zero,804758 <logic+0x4294>
  804728:	e0bffd17 	ldw	r2,-12(fp)
  80472c:	10802a83 	ldbu	r2,170(r2)
  804730:	10803fcc 	andi	r2,r2,255
  804734:	1080201c 	xori	r2,r2,128
  804738:	10bfe004 	addi	r2,r2,-128
  80473c:	1000061e 	bne	r2,zero,804758 <logic+0x4294>
  804740:	e0bffd17 	ldw	r2,-12(fp)
  804744:	10802bc3 	ldbu	r2,175(r2)
  804748:	10803fcc 	andi	r2,r2,255
  80474c:	1080201c 	xori	r2,r2,128
  804750:	10bfe004 	addi	r2,r2,-128
  804754:	10000226 	beq	r2,zero,804760 <logic+0x429c>
  804758:	00800044 	movi	r2,1
  80475c:	00000106 	br	804764 <logic+0x42a0>
  804760:	0005883a 	mov	r2,zero
  804764:	1007883a 	mov	r3,r2
  804768:	e0bffd17 	ldw	r2,-12(fp)
  80476c:	10c02b05 	stb	r3,172(r2)
  d->_cg132 = d->_pacemaker_local__Atrig4;
  804770:	e0bffd17 	ldw	r2,-12(fp)
  804774:	10c00e03 	ldbu	r3,56(r2)
  804778:	e0bffd17 	ldw	r2,-12(fp)
  80477c:	10c04285 	stb	r3,266(r2)
  d->_g113 = d->_g128 && !d->_cg132;
  804780:	e0bffd17 	ldw	r2,-12(fp)
  804784:	10802b03 	ldbu	r2,172(r2)
  804788:	10803fcc 	andi	r2,r2,255
  80478c:	1080201c 	xori	r2,r2,128
  804790:	10bfe004 	addi	r2,r2,-128
  804794:	10000826 	beq	r2,zero,8047b8 <logic+0x42f4>
  804798:	e0bffd17 	ldw	r2,-12(fp)
  80479c:	10804283 	ldbu	r2,266(r2)
  8047a0:	10803fcc 	andi	r2,r2,255
  8047a4:	1080201c 	xori	r2,r2,128
  8047a8:	10bfe004 	addi	r2,r2,-128
  8047ac:	1000021e 	bne	r2,zero,8047b8 <logic+0x42f4>
  8047b0:	00800044 	movi	r2,1
  8047b4:	00000106 	br	8047bc <logic+0x42f8>
  8047b8:	0005883a 	mov	r2,zero
  8047bc:	1007883a 	mov	r3,r2
  8047c0:	e0bffd17 	ldw	r2,-12(fp)
  8047c4:	10c02885 	stb	r3,162(r2)
  if (d->_g113) {
  8047c8:	e0bffd17 	ldw	r2,-12(fp)
  8047cc:	10802883 	ldbu	r2,162(r2)
  8047d0:	10803fcc 	andi	r2,r2,255
  8047d4:	1080201c 	xori	r2,r2,128
  8047d8:	10bfe004 	addi	r2,r2,-128
  8047dc:	10000326 	beq	r2,zero,8047ec <logic+0x4328>
    d->_pacemaker_local__CFSterm1 = 1;
  8047e0:	e0bffd17 	ldw	r2,-12(fp)
  8047e4:	00c00044 	movi	r3,1
  8047e8:	10c00cc5 	stb	r3,51(r2)
  }
  d->_g129 = d->_g128 && d->_cg132 || d->_g113;
  8047ec:	e0bffd17 	ldw	r2,-12(fp)
  8047f0:	10802b03 	ldbu	r2,172(r2)
  8047f4:	10803fcc 	andi	r2,r2,255
  8047f8:	1080201c 	xori	r2,r2,128
  8047fc:	10bfe004 	addi	r2,r2,-128
  804800:	10000626 	beq	r2,zero,80481c <logic+0x4358>
  804804:	e0bffd17 	ldw	r2,-12(fp)
  804808:	10804283 	ldbu	r2,266(r2)
  80480c:	10803fcc 	andi	r2,r2,255
  804810:	1080201c 	xori	r2,r2,128
  804814:	10bfe004 	addi	r2,r2,-128
  804818:	1000061e 	bne	r2,zero,804834 <logic+0x4370>
  80481c:	e0bffd17 	ldw	r2,-12(fp)
  804820:	10802883 	ldbu	r2,162(r2)
  804824:	10803fcc 	andi	r2,r2,255
  804828:	1080201c 	xori	r2,r2,128
  80482c:	10bfe004 	addi	r2,r2,-128
  804830:	10000226 	beq	r2,zero,80483c <logic+0x4378>
  804834:	00800044 	movi	r2,1
  804838:	00000106 	br	804840 <logic+0x437c>
  80483c:	0005883a 	mov	r2,zero
  804840:	1007883a 	mov	r3,r2
  804844:	e0bffd17 	ldw	r2,-12(fp)
  804848:	10c02b45 	stb	r3,173(r2)
  d->_g113_e1 = !d->_g97_e1;
  80484c:	e0bffd17 	ldw	r2,-12(fp)
  804850:	10804bc3 	ldbu	r2,303(r2)
  804854:	10803fcc 	andi	r2,r2,255
  804858:	1080201c 	xori	r2,r2,128
  80485c:	10bfe004 	addi	r2,r2,-128
  804860:	1005003a 	cmpeq	r2,r2,zero
  804864:	1007883a 	mov	r3,r2
  804868:	e0bffd17 	ldw	r2,-12(fp)
  80486c:	10c04c45 	stb	r3,305(r2)
  d->_cg139 = d->_pacemaker_local__CFSterm1;
  804870:	e0bffd17 	ldw	r2,-12(fp)
  804874:	10c00cc3 	ldbu	r3,51(r2)
  804878:	e0bffd17 	ldw	r2,-12(fp)
  80487c:	10c04305 	stb	r3,268(r2)
  d->_g119 = d->_g97_e1 && d->_cg137 || d->_g103 && d->_cg139;
  804880:	e0bffd17 	ldw	r2,-12(fp)
  804884:	10804bc3 	ldbu	r2,303(r2)
  804888:	10803fcc 	andi	r2,r2,255
  80488c:	1080201c 	xori	r2,r2,128
  804890:	10bfe004 	addi	r2,r2,-128
  804894:	10000626 	beq	r2,zero,8048b0 <logic+0x43ec>
  804898:	e0bffd17 	ldw	r2,-12(fp)
  80489c:	10804343 	ldbu	r2,269(r2)
  8048a0:	10803fcc 	andi	r2,r2,255
  8048a4:	1080201c 	xori	r2,r2,128
  8048a8:	10bfe004 	addi	r2,r2,-128
  8048ac:	10000c1e 	bne	r2,zero,8048e0 <logic+0x441c>
  8048b0:	e0bffd17 	ldw	r2,-12(fp)
  8048b4:	10802783 	ldbu	r2,158(r2)
  8048b8:	10803fcc 	andi	r2,r2,255
  8048bc:	1080201c 	xori	r2,r2,128
  8048c0:	10bfe004 	addi	r2,r2,-128
  8048c4:	10000826 	beq	r2,zero,8048e8 <logic+0x4424>
  8048c8:	e0bffd17 	ldw	r2,-12(fp)
  8048cc:	10804303 	ldbu	r2,268(r2)
  8048d0:	10803fcc 	andi	r2,r2,255
  8048d4:	1080201c 	xori	r2,r2,128
  8048d8:	10bfe004 	addi	r2,r2,-128
  8048dc:	10000226 	beq	r2,zero,8048e8 <logic+0x4424>
  8048e0:	00800044 	movi	r2,1
  8048e4:	00000106 	br	8048ec <logic+0x4428>
  8048e8:	0005883a 	mov	r2,zero
  8048ec:	1007883a 	mov	r3,r2
  8048f0:	e0bffd17 	ldw	r2,-12(fp)
  8048f4:	10c02985 	stb	r3,166(r2)
  d->_g129_e3 = !d->_g142;
  8048f8:	e0bffd17 	ldw	r2,-12(fp)
  8048fc:	10802d83 	ldbu	r2,182(r2)
  804900:	10803fcc 	andi	r2,r2,255
  804904:	1080201c 	xori	r2,r2,128
  804908:	10bfe004 	addi	r2,r2,-128
  80490c:	1005003a 	cmpeq	r2,r2,zero
  804910:	1007883a 	mov	r3,r2
  804914:	e0bffd17 	ldw	r2,-12(fp)
  804918:	10c04cc5 	stb	r3,307(r2)
  d->_g119_e2 = d->_g142 && !d->VS;
  80491c:	e0bffd17 	ldw	r2,-12(fp)
  804920:	10802d83 	ldbu	r2,182(r2)
  804924:	10803fcc 	andi	r2,r2,255
  804928:	1080201c 	xori	r2,r2,128
  80492c:	10bfe004 	addi	r2,r2,-128
  804930:	10000826 	beq	r2,zero,804954 <logic+0x4490>
  804934:	e0bffd17 	ldw	r2,-12(fp)
  804938:	10800a43 	ldbu	r2,41(r2)
  80493c:	10803fcc 	andi	r2,r2,255
  804940:	1080201c 	xori	r2,r2,128
  804944:	10bfe004 	addi	r2,r2,-128
  804948:	1000021e 	bne	r2,zero,804954 <logic+0x4490>
  80494c:	00800044 	movi	r2,1
  804950:	00000106 	br	804958 <logic+0x4494>
  804954:	0005883a 	mov	r2,zero
  804958:	1007883a 	mov	r3,r2
  80495c:	e0bffd17 	ldw	r2,-12(fp)
  804960:	10c04c85 	stb	r3,306(r2)
  d->_cg145 = d->_pacemaker_local__CFSterm1;
  804964:	e0bffd17 	ldw	r2,-12(fp)
  804968:	10c00cc3 	ldbu	r3,51(r2)
  80496c:	e0bffd17 	ldw	r2,-12(fp)
  804970:	10c04385 	stb	r3,270(r2)
  d->_g134 = d->_g143 || d->_g119_e2 && d->_cg145;
  804974:	e0bffd17 	ldw	r2,-12(fp)
  804978:	10802dc3 	ldbu	r2,183(r2)
  80497c:	10803fcc 	andi	r2,r2,255
  804980:	1080201c 	xori	r2,r2,128
  804984:	10bfe004 	addi	r2,r2,-128
  804988:	10000c1e 	bne	r2,zero,8049bc <logic+0x44f8>
  80498c:	e0bffd17 	ldw	r2,-12(fp)
  804990:	10804c83 	ldbu	r2,306(r2)
  804994:	10803fcc 	andi	r2,r2,255
  804998:	1080201c 	xori	r2,r2,128
  80499c:	10bfe004 	addi	r2,r2,-128
  8049a0:	10000826 	beq	r2,zero,8049c4 <logic+0x4500>
  8049a4:	e0bffd17 	ldw	r2,-12(fp)
  8049a8:	10804383 	ldbu	r2,270(r2)
  8049ac:	10803fcc 	andi	r2,r2,255
  8049b0:	1080201c 	xori	r2,r2,128
  8049b4:	10bfe004 	addi	r2,r2,-128
  8049b8:	10000226 	beq	r2,zero,8049c4 <logic+0x4500>
  8049bc:	00800044 	movi	r2,1
  8049c0:	00000106 	br	8049c8 <logic+0x4504>
  8049c4:	0005883a 	mov	r2,zero
  8049c8:	1007883a 	mov	r3,r2
  8049cc:	e0bffd17 	ldw	r2,-12(fp)
  8049d0:	10c02c85 	stb	r3,178(r2)
  d->_g132 = (d->_g97 || d->_g129) && (d->_g113_e1 || d->_g119) && (d->_g129_e3 || d->_g134) && (d->_g129 || d->_g119 || d->_g134);
  8049d4:	e0bffd17 	ldw	r2,-12(fp)
  8049d8:	10802683 	ldbu	r2,154(r2)
  8049dc:	10803fcc 	andi	r2,r2,255
  8049e0:	1080201c 	xori	r2,r2,128
  8049e4:	10bfe004 	addi	r2,r2,-128
  8049e8:	1000061e 	bne	r2,zero,804a04 <logic+0x4540>
  8049ec:	e0bffd17 	ldw	r2,-12(fp)
  8049f0:	10802b43 	ldbu	r2,173(r2)
  8049f4:	10803fcc 	andi	r2,r2,255
  8049f8:	1080201c 	xori	r2,r2,128
  8049fc:	10bfe004 	addi	r2,r2,-128
  804a00:	10002c26 	beq	r2,zero,804ab4 <logic+0x45f0>
  804a04:	e0bffd17 	ldw	r2,-12(fp)
  804a08:	10804c43 	ldbu	r2,305(r2)
  804a0c:	10803fcc 	andi	r2,r2,255
  804a10:	1080201c 	xori	r2,r2,128
  804a14:	10bfe004 	addi	r2,r2,-128
  804a18:	1000061e 	bne	r2,zero,804a34 <logic+0x4570>
  804a1c:	e0bffd17 	ldw	r2,-12(fp)
  804a20:	10802983 	ldbu	r2,166(r2)
  804a24:	10803fcc 	andi	r2,r2,255
  804a28:	1080201c 	xori	r2,r2,128
  804a2c:	10bfe004 	addi	r2,r2,-128
  804a30:	10002026 	beq	r2,zero,804ab4 <logic+0x45f0>
  804a34:	e0bffd17 	ldw	r2,-12(fp)
  804a38:	10804cc3 	ldbu	r2,307(r2)
  804a3c:	10803fcc 	andi	r2,r2,255
  804a40:	1080201c 	xori	r2,r2,128
  804a44:	10bfe004 	addi	r2,r2,-128
  804a48:	1000061e 	bne	r2,zero,804a64 <logic+0x45a0>
  804a4c:	e0bffd17 	ldw	r2,-12(fp)
  804a50:	10802c83 	ldbu	r2,178(r2)
  804a54:	10803fcc 	andi	r2,r2,255
  804a58:	1080201c 	xori	r2,r2,128
  804a5c:	10bfe004 	addi	r2,r2,-128
  804a60:	10001426 	beq	r2,zero,804ab4 <logic+0x45f0>
  804a64:	e0bffd17 	ldw	r2,-12(fp)
  804a68:	10802b43 	ldbu	r2,173(r2)
  804a6c:	10803fcc 	andi	r2,r2,255
  804a70:	1080201c 	xori	r2,r2,128
  804a74:	10bfe004 	addi	r2,r2,-128
  804a78:	10000c1e 	bne	r2,zero,804aac <logic+0x45e8>
  804a7c:	e0bffd17 	ldw	r2,-12(fp)
  804a80:	10802983 	ldbu	r2,166(r2)
  804a84:	10803fcc 	andi	r2,r2,255
  804a88:	1080201c 	xori	r2,r2,128
  804a8c:	10bfe004 	addi	r2,r2,-128
  804a90:	1000061e 	bne	r2,zero,804aac <logic+0x45e8>
  804a94:	e0bffd17 	ldw	r2,-12(fp)
  804a98:	10802c83 	ldbu	r2,178(r2)
  804a9c:	10803fcc 	andi	r2,r2,255
  804aa0:	1080201c 	xori	r2,r2,128
  804aa4:	10bfe004 	addi	r2,r2,-128
  804aa8:	10000226 	beq	r2,zero,804ab4 <logic+0x45f0>
  804aac:	00800044 	movi	r2,1
  804ab0:	00000106 	br	804ab8 <logic+0x45f4>
  804ab4:	0005883a 	mov	r2,zero
  804ab8:	1007883a 	mov	r3,r2
  804abc:	e0bffd17 	ldw	r2,-12(fp)
  804ac0:	10c02c05 	stb	r3,176(r2)
  d->_cg146 = d->_pacemaker_local__Atrig4;
  804ac4:	e0bffd17 	ldw	r2,-12(fp)
  804ac8:	10c00e03 	ldbu	r3,56(r2)
  804acc:	e0bffd17 	ldw	r2,-12(fp)
  804ad0:	10c03ec5 	stb	r3,251(r2)
  d->_g137 = d->_pg142;
  804ad4:	e0bffd17 	ldw	r2,-12(fp)
  804ad8:	10c05803 	ldbu	r3,352(r2)
  804adc:	e0bffd17 	ldw	r2,-12(fp)
  804ae0:	10c02cc5 	stb	r3,179(r2)
  d->_cg107 = d->VP || d->VS;
  804ae4:	e0bffd17 	ldw	r2,-12(fp)
  804ae8:	10800bc3 	ldbu	r2,47(r2)
  804aec:	10803fcc 	andi	r2,r2,255
  804af0:	1080201c 	xori	r2,r2,128
  804af4:	10bfe004 	addi	r2,r2,-128
  804af8:	1000061e 	bne	r2,zero,804b14 <logic+0x4650>
  804afc:	e0bffd17 	ldw	r2,-12(fp)
  804b00:	10800a43 	ldbu	r2,41(r2)
  804b04:	10803fcc 	andi	r2,r2,255
  804b08:	1080201c 	xori	r2,r2,128
  804b0c:	10bfe004 	addi	r2,r2,-128
  804b10:	10000226 	beq	r2,zero,804b1c <logic+0x4658>
  804b14:	00800044 	movi	r2,1
  804b18:	00000106 	br	804b20 <logic+0x465c>
  804b1c:	0005883a 	mov	r2,zero
  804b20:	1007883a 	mov	r3,r2
  804b24:	e0bffd17 	ldw	r2,-12(fp)
  804b28:	10c03f05 	stb	r3,252(r2)
  d->_g142 = d->_GO || d->_g132 && !d->_cg146 || d->_g137 && !d->_cg107;
  804b2c:	e0bffd17 	ldw	r2,-12(fp)
  804b30:	10803543 	ldbu	r2,213(r2)
  804b34:	10803fcc 	andi	r2,r2,255
  804b38:	1080201c 	xori	r2,r2,128
  804b3c:	10bfe004 	addi	r2,r2,-128
  804b40:	1000181e 	bne	r2,zero,804ba4 <logic+0x46e0>
  804b44:	e0bffd17 	ldw	r2,-12(fp)
  804b48:	10802c03 	ldbu	r2,176(r2)
  804b4c:	10803fcc 	andi	r2,r2,255
  804b50:	1080201c 	xori	r2,r2,128
  804b54:	10bfe004 	addi	r2,r2,-128
  804b58:	10000626 	beq	r2,zero,804b74 <logic+0x46b0>
  804b5c:	e0bffd17 	ldw	r2,-12(fp)
  804b60:	10803ec3 	ldbu	r2,251(r2)
  804b64:	10803fcc 	andi	r2,r2,255
  804b68:	1080201c 	xori	r2,r2,128
  804b6c:	10bfe004 	addi	r2,r2,-128
  804b70:	10000c26 	beq	r2,zero,804ba4 <logic+0x46e0>
  804b74:	e0bffd17 	ldw	r2,-12(fp)
  804b78:	10802cc3 	ldbu	r2,179(r2)
  804b7c:	10803fcc 	andi	r2,r2,255
  804b80:	1080201c 	xori	r2,r2,128
  804b84:	10bfe004 	addi	r2,r2,-128
  804b88:	10000826 	beq	r2,zero,804bac <logic+0x46e8>
  804b8c:	e0bffd17 	ldw	r2,-12(fp)
  804b90:	10803f03 	ldbu	r2,252(r2)
  804b94:	10803fcc 	andi	r2,r2,255
  804b98:	1080201c 	xori	r2,r2,128
  804b9c:	10bfe004 	addi	r2,r2,-128
  804ba0:	1000021e 	bne	r2,zero,804bac <logic+0x46e8>
  804ba4:	00800044 	movi	r2,1
  804ba8:	00000106 	br	804bb0 <logic+0x46ec>
  804bac:	0005883a 	mov	r2,zero
  804bb0:	1007883a 	mov	r3,r2
  804bb4:	e0bffd17 	ldw	r2,-12(fp)
  804bb8:	10c02d85 	stb	r3,182(r2)
  d->_g143 = d->_g137 && d->_cg107 || d->_g132 && d->_cg146;
  804bbc:	e0bffd17 	ldw	r2,-12(fp)
  804bc0:	10802cc3 	ldbu	r2,179(r2)
  804bc4:	10803fcc 	andi	r2,r2,255
  804bc8:	1080201c 	xori	r2,r2,128
  804bcc:	10bfe004 	addi	r2,r2,-128
  804bd0:	10000626 	beq	r2,zero,804bec <logic+0x4728>
  804bd4:	e0bffd17 	ldw	r2,-12(fp)
  804bd8:	10803f03 	ldbu	r2,252(r2)
  804bdc:	10803fcc 	andi	r2,r2,255
  804be0:	1080201c 	xori	r2,r2,128
  804be4:	10bfe004 	addi	r2,r2,-128
  804be8:	10000c1e 	bne	r2,zero,804c1c <logic+0x4758>
  804bec:	e0bffd17 	ldw	r2,-12(fp)
  804bf0:	10802c03 	ldbu	r2,176(r2)
  804bf4:	10803fcc 	andi	r2,r2,255
  804bf8:	1080201c 	xori	r2,r2,128
  804bfc:	10bfe004 	addi	r2,r2,-128
  804c00:	10000826 	beq	r2,zero,804c24 <logic+0x4760>
  804c04:	e0bffd17 	ldw	r2,-12(fp)
  804c08:	10803ec3 	ldbu	r2,251(r2)
  804c0c:	10803fcc 	andi	r2,r2,255
  804c10:	1080201c 	xori	r2,r2,128
  804c14:	10bfe004 	addi	r2,r2,-128
  804c18:	10000226 	beq	r2,zero,804c24 <logic+0x4760>
  804c1c:	00800044 	movi	r2,1
  804c20:	00000106 	br	804c28 <logic+0x4764>
  804c24:	0005883a 	mov	r2,zero
  804c28:	1007883a 	mov	r3,r2
  804c2c:	e0bffd17 	ldw	r2,-12(fp)
  804c30:	10c02dc5 	stb	r3,183(r2)
  if (d->_g143) {
  804c34:	e0bffd17 	ldw	r2,-12(fp)
  804c38:	10802dc3 	ldbu	r2,183(r2)
  804c3c:	10803fcc 	andi	r2,r2,255
  804c40:	1080201c 	xori	r2,r2,128
  804c44:	10bfe004 	addi	r2,r2,-128
  804c48:	10000926 	beq	r2,zero,804c70 <logic+0x47ac>
    d->_pacemaker_local_x1 = 0;
  804c4c:	e0bffd17 	ldw	r2,-12(fp)
  804c50:	10001215 	stw	zero,72(r2)
  804c54:	10001315 	stw	zero,76(r2)
    d->_pacemaker_local__CFSterm1 = 0;
  804c58:	e0bffd17 	ldw	r2,-12(fp)
  804c5c:	10000cc5 	stb	zero,51(r2)
    d->_pacemaker_local__Atrig4 = 0;
  804c60:	e0bffd17 	ldw	r2,-12(fp)
  804c64:	10000e05 	stb	zero,56(r2)
    d->_pacemaker_local__Atrig5 = 0;
  804c68:	e0bffd17 	ldw	r2,-12(fp)
  804c6c:	10001405 	stb	zero,80(r2)
  }
  d->_cg110 = d->_pacemaker_local__Atrig5;
  804c70:	e0bffd17 	ldw	r2,-12(fp)
  804c74:	10c01403 	ldbu	r3,80(r2)
  804c78:	e0bffd17 	ldw	r2,-12(fp)
  804c7c:	10c03f45 	stb	r3,253(r2)
  d->_g144_e3 = d->_g143 && !d->_cg110 || d->_g114 && !d->_cg114;
  804c80:	e0bffd17 	ldw	r2,-12(fp)
  804c84:	10802dc3 	ldbu	r2,183(r2)
  804c88:	10803fcc 	andi	r2,r2,255
  804c8c:	1080201c 	xori	r2,r2,128
  804c90:	10bfe004 	addi	r2,r2,-128
  804c94:	10000626 	beq	r2,zero,804cb0 <logic+0x47ec>
  804c98:	e0bffd17 	ldw	r2,-12(fp)
  804c9c:	10803f43 	ldbu	r2,253(r2)
  804ca0:	10803fcc 	andi	r2,r2,255
  804ca4:	1080201c 	xori	r2,r2,128
  804ca8:	10bfe004 	addi	r2,r2,-128
  804cac:	10000c26 	beq	r2,zero,804ce0 <logic+0x481c>
  804cb0:	e0bffd17 	ldw	r2,-12(fp)
  804cb4:	108028c3 	ldbu	r2,163(r2)
  804cb8:	10803fcc 	andi	r2,r2,255
  804cbc:	1080201c 	xori	r2,r2,128
  804cc0:	10bfe004 	addi	r2,r2,-128
  804cc4:	10000826 	beq	r2,zero,804ce8 <logic+0x4824>
  804cc8:	e0bffd17 	ldw	r2,-12(fp)
  804ccc:	10803f83 	ldbu	r2,254(r2)
  804cd0:	10803fcc 	andi	r2,r2,255
  804cd4:	1080201c 	xori	r2,r2,128
  804cd8:	10bfe004 	addi	r2,r2,-128
  804cdc:	1000021e 	bne	r2,zero,804ce8 <logic+0x4824>
  804ce0:	00800044 	movi	r2,1
  804ce4:	00000106 	br	804cec <logic+0x4828>
  804ce8:	0005883a 	mov	r2,zero
  804cec:	1007883a 	mov	r3,r2
  804cf0:	e0bffd17 	ldw	r2,-12(fp)
  804cf4:	10c04d85 	stb	r3,310(r2)
  d->_cg115 = d->_pacemaker_local_x1 < URI_VALUE;
  804cf8:	e13ffd17 	ldw	r4,-12(fp)
  804cfc:	20801217 	ldw	r2,72(r4)
  804d00:	20c01317 	ldw	r3,76(r4)
  804d04:	04000044 	movi	r16,1
  804d08:	000d883a 	mov	r6,zero
  804d0c:	01d02334 	movhi	r7,16524
  804d10:	39c80004 	addi	r7,r7,8192
  804d14:	1009883a 	mov	r4,r2
  804d18:	180b883a 	mov	r5,r3
  804d1c:	08065e40 	call	8065e4 <__ledf2>
  804d20:	10000116 	blt	r2,zero,804d28 <logic+0x4864>
  804d24:	0021883a 	mov	r16,zero
  804d28:	8007883a 	mov	r3,r16
  804d2c:	e0bffd17 	ldw	r2,-12(fp)
  804d30:	10c04005 	stb	r3,256(r2)
  d->_g133 = d->_g143 && d->_cg115;
  804d34:	e0bffd17 	ldw	r2,-12(fp)
  804d38:	10802dc3 	ldbu	r2,183(r2)
  804d3c:	10803fcc 	andi	r2,r2,255
  804d40:	1080201c 	xori	r2,r2,128
  804d44:	10bfe004 	addi	r2,r2,-128
  804d48:	10000826 	beq	r2,zero,804d6c <logic+0x48a8>
  804d4c:	e0bffd17 	ldw	r2,-12(fp)
  804d50:	10804003 	ldbu	r2,256(r2)
  804d54:	10803fcc 	andi	r2,r2,255
  804d58:	1080201c 	xori	r2,r2,128
  804d5c:	10bfe004 	addi	r2,r2,-128
  804d60:	10000226 	beq	r2,zero,804d6c <logic+0x48a8>
  804d64:	00800044 	movi	r2,1
  804d68:	00000106 	br	804d70 <logic+0x48ac>
  804d6c:	0005883a 	mov	r2,zero
  804d70:	1007883a 	mov	r3,r2
  804d74:	e0bffd17 	ldw	r2,-12(fp)
  804d78:	10c02c45 	stb	r3,177(r2)
  if (d->_g133) {
  804d7c:	e0bffd17 	ldw	r2,-12(fp)
  804d80:	10802c43 	ldbu	r2,177(r2)
  804d84:	10803fcc 	andi	r2,r2,255
  804d88:	1080201c 	xori	r2,r2,128
  804d8c:	10bfe004 	addi	r2,r2,-128
  804d90:	10002a26 	beq	r2,zero,804e3c <logic+0x4978>
    d->sleepT = (d->sleepT < (URI_VALUE - d->_pacemaker_local_x1)) ? d->sleepT : (URI_VALUE - d->_pacemaker_local_x1);
  804d94:	e0bffd17 	ldw	r2,-12(fp)
  804d98:	14000817 	ldw	r16,32(r2)
  804d9c:	14400917 	ldw	r17,36(r2)
  804da0:	e13ffd17 	ldw	r4,-12(fp)
  804da4:	20801217 	ldw	r2,72(r4)
  804da8:	20c01317 	ldw	r3,76(r4)
  804dac:	100d883a 	mov	r6,r2
  804db0:	180f883a 	mov	r7,r3
  804db4:	0009883a 	mov	r4,zero
  804db8:	01502334 	movhi	r5,16524
  804dbc:	29480004 	addi	r5,r5,8192
  804dc0:	0806df00 	call	806df0 <__subdf3>
  804dc4:	1009883a 	mov	r4,r2
  804dc8:	180b883a 	mov	r5,r3
  804dcc:	2005883a 	mov	r2,r4
  804dd0:	2807883a 	mov	r3,r5
  804dd4:	100d883a 	mov	r6,r2
  804dd8:	180f883a 	mov	r7,r3
  804ddc:	8009883a 	mov	r4,r16
  804de0:	880b883a 	mov	r5,r17
  804de4:	08065e40 	call	8065e4 <__ledf2>
  804de8:	1000040e 	bge	r2,zero,804dfc <logic+0x4938>
  804dec:	e13ffd17 	ldw	r4,-12(fp)
  804df0:	20800817 	ldw	r2,32(r4)
  804df4:	20c00917 	ldw	r3,36(r4)
  804df8:	00000d06 	br	804e30 <logic+0x496c>
  804dfc:	e13ffd17 	ldw	r4,-12(fp)
  804e00:	20801217 	ldw	r2,72(r4)
  804e04:	20c01317 	ldw	r3,76(r4)
  804e08:	100d883a 	mov	r6,r2
  804e0c:	180f883a 	mov	r7,r3
  804e10:	0009883a 	mov	r4,zero
  804e14:	01502334 	movhi	r5,16524
  804e18:	29480004 	addi	r5,r5,8192
  804e1c:	0806df00 	call	806df0 <__subdf3>
  804e20:	1009883a 	mov	r4,r2
  804e24:	180b883a 	mov	r5,r3
  804e28:	2005883a 	mov	r2,r4
  804e2c:	2807883a 	mov	r3,r5
  804e30:	e13ffd17 	ldw	r4,-12(fp)
  804e34:	20800815 	stw	r2,32(r4)
  804e38:	20c00915 	stw	r3,36(r4)
  }
  d->_cg116 = d->_pacemaker_local__Atrig5;
  804e3c:	e0bffd17 	ldw	r2,-12(fp)
  804e40:	10c01403 	ldbu	r3,80(r2)
  804e44:	e0bffd17 	ldw	r2,-12(fp)
  804e48:	10c04045 	stb	r3,257(r2)
  d->_g144 = d->_g133 && !d->_cg116 || d->_g121 && !d->_cg121;
  804e4c:	e0bffd17 	ldw	r2,-12(fp)
  804e50:	10802c43 	ldbu	r2,177(r2)
  804e54:	10803fcc 	andi	r2,r2,255
  804e58:	1080201c 	xori	r2,r2,128
  804e5c:	10bfe004 	addi	r2,r2,-128
  804e60:	10000626 	beq	r2,zero,804e7c <logic+0x49b8>
  804e64:	e0bffd17 	ldw	r2,-12(fp)
  804e68:	10804043 	ldbu	r2,257(r2)
  804e6c:	10803fcc 	andi	r2,r2,255
  804e70:	1080201c 	xori	r2,r2,128
  804e74:	10bfe004 	addi	r2,r2,-128
  804e78:	10000c26 	beq	r2,zero,804eac <logic+0x49e8>
  804e7c:	e0bffd17 	ldw	r2,-12(fp)
  804e80:	10802a03 	ldbu	r2,168(r2)
  804e84:	10803fcc 	andi	r2,r2,255
  804e88:	1080201c 	xori	r2,r2,128
  804e8c:	10bfe004 	addi	r2,r2,-128
  804e90:	10000826 	beq	r2,zero,804eb4 <logic+0x49f0>
  804e94:	e0bffd17 	ldw	r2,-12(fp)
  804e98:	10804083 	ldbu	r2,258(r2)
  804e9c:	10803fcc 	andi	r2,r2,255
  804ea0:	1080201c 	xori	r2,r2,128
  804ea4:	10bfe004 	addi	r2,r2,-128
  804ea8:	1000021e 	bne	r2,zero,804eb4 <logic+0x49f0>
  804eac:	00800044 	movi	r2,1
  804eb0:	00000106 	br	804eb8 <logic+0x49f4>
  804eb4:	0005883a 	mov	r2,zero
  804eb8:	1007883a 	mov	r3,r2
  804ebc:	e0bffd17 	ldw	r2,-12(fp)
  804ec0:	10c02e05 	stb	r3,184(r2)
  d->_g138 = d->_g143 && !d->_cg115;
  804ec4:	e0bffd17 	ldw	r2,-12(fp)
  804ec8:	10802dc3 	ldbu	r2,183(r2)
  804ecc:	10803fcc 	andi	r2,r2,255
  804ed0:	1080201c 	xori	r2,r2,128
  804ed4:	10bfe004 	addi	r2,r2,-128
  804ed8:	10000826 	beq	r2,zero,804efc <logic+0x4a38>
  804edc:	e0bffd17 	ldw	r2,-12(fp)
  804ee0:	10804003 	ldbu	r2,256(r2)
  804ee4:	10803fcc 	andi	r2,r2,255
  804ee8:	1080201c 	xori	r2,r2,128
  804eec:	10bfe004 	addi	r2,r2,-128
  804ef0:	1000021e 	bne	r2,zero,804efc <logic+0x4a38>
  804ef4:	00800044 	movi	r2,1
  804ef8:	00000106 	br	804f00 <logic+0x4a3c>
  804efc:	0005883a 	mov	r2,zero
  804f00:	1007883a 	mov	r3,r2
  804f04:	e0bffd17 	ldw	r2,-12(fp)
  804f08:	10c02d05 	stb	r3,180(r2)
  d->_cg125 = d->_pacemaker_local__Atrig5;
  804f0c:	e0bffd17 	ldw	r2,-12(fp)
  804f10:	10c01403 	ldbu	r3,80(r2)
  804f14:	e0bffd17 	ldw	r2,-12(fp)
  804f18:	10c041c5 	stb	r3,263(r2)
  d->_g133_e1 = d->_g120 && !d->_cg122 || d->_g138 && !d->_cg125;
  804f1c:	e0bffd17 	ldw	r2,-12(fp)
  804f20:	108029c3 	ldbu	r2,167(r2)
  804f24:	10803fcc 	andi	r2,r2,255
  804f28:	1080201c 	xori	r2,r2,128
  804f2c:	10bfe004 	addi	r2,r2,-128
  804f30:	10000626 	beq	r2,zero,804f4c <logic+0x4a88>
  804f34:	e0bffd17 	ldw	r2,-12(fp)
  804f38:	10804103 	ldbu	r2,260(r2)
  804f3c:	10803fcc 	andi	r2,r2,255
  804f40:	1080201c 	xori	r2,r2,128
  804f44:	10bfe004 	addi	r2,r2,-128
  804f48:	10000c26 	beq	r2,zero,804f7c <logic+0x4ab8>
  804f4c:	e0bffd17 	ldw	r2,-12(fp)
  804f50:	10802d03 	ldbu	r2,180(r2)
  804f54:	10803fcc 	andi	r2,r2,255
  804f58:	1080201c 	xori	r2,r2,128
  804f5c:	10bfe004 	addi	r2,r2,-128
  804f60:	10000826 	beq	r2,zero,804f84 <logic+0x4ac0>
  804f64:	e0bffd17 	ldw	r2,-12(fp)
  804f68:	108041c3 	ldbu	r2,263(r2)
  804f6c:	10803fcc 	andi	r2,r2,255
  804f70:	1080201c 	xori	r2,r2,128
  804f74:	10bfe004 	addi	r2,r2,-128
  804f78:	1000021e 	bne	r2,zero,804f84 <logic+0x4ac0>
  804f7c:	00800044 	movi	r2,1
  804f80:	00000106 	br	804f88 <logic+0x4ac4>
  804f84:	0005883a 	mov	r2,zero
  804f88:	1007883a 	mov	r3,r2
  804f8c:	e0bffd17 	ldw	r2,-12(fp)
  804f90:	10c04d05 	stb	r3,308(r2)
  d->_g138_e2 = d->_g143 || d->_g76 && !d->_cg130;
  804f94:	e0bffd17 	ldw	r2,-12(fp)
  804f98:	10802dc3 	ldbu	r2,183(r2)
  804f9c:	10803fcc 	andi	r2,r2,255
  804fa0:	1080201c 	xori	r2,r2,128
  804fa4:	10bfe004 	addi	r2,r2,-128
  804fa8:	10000c1e 	bne	r2,zero,804fdc <logic+0x4b18>
  804fac:	e0bffd17 	ldw	r2,-12(fp)
  804fb0:	108022c3 	ldbu	r2,139(r2)
  804fb4:	10803fcc 	andi	r2,r2,255
  804fb8:	1080201c 	xori	r2,r2,128
  804fbc:	10bfe004 	addi	r2,r2,-128
  804fc0:	10000826 	beq	r2,zero,804fe4 <logic+0x4b20>
  804fc4:	e0bffd17 	ldw	r2,-12(fp)
  804fc8:	10804203 	ldbu	r2,264(r2)
  804fcc:	10803fcc 	andi	r2,r2,255
  804fd0:	1080201c 	xori	r2,r2,128
  804fd4:	10bfe004 	addi	r2,r2,-128
  804fd8:	1000021e 	bne	r2,zero,804fe4 <logic+0x4b20>
  804fdc:	00800044 	movi	r2,1
  804fe0:	00000106 	br	804fe8 <logic+0x4b24>
  804fe4:	0005883a 	mov	r2,zero
  804fe8:	1007883a 	mov	r3,r2
  804fec:	e0bffd17 	ldw	r2,-12(fp)
  804ff0:	10c04d45 	stb	r3,309(r2)
  d->_cg135 = d->_pacemaker_local__CFSterm1;
  804ff4:	e0bffd17 	ldw	r2,-12(fp)
  804ff8:	10c00cc3 	ldbu	r3,51(r2)
  804ffc:	e0bffd17 	ldw	r2,-12(fp)
  805000:	10c042c5 	stb	r3,267(r2)
  d->_g146 = d->_g143 && !d->_cg135 || d->_g103 && !d->_cg139;
  805004:	e0bffd17 	ldw	r2,-12(fp)
  805008:	10802dc3 	ldbu	r2,183(r2)
  80500c:	10803fcc 	andi	r2,r2,255
  805010:	1080201c 	xori	r2,r2,128
  805014:	10bfe004 	addi	r2,r2,-128
  805018:	10000626 	beq	r2,zero,805034 <logic+0x4b70>
  80501c:	e0bffd17 	ldw	r2,-12(fp)
  805020:	108042c3 	ldbu	r2,267(r2)
  805024:	10803fcc 	andi	r2,r2,255
  805028:	1080201c 	xori	r2,r2,128
  80502c:	10bfe004 	addi	r2,r2,-128
  805030:	10000c26 	beq	r2,zero,805064 <logic+0x4ba0>
  805034:	e0bffd17 	ldw	r2,-12(fp)
  805038:	10802783 	ldbu	r2,158(r2)
  80503c:	10803fcc 	andi	r2,r2,255
  805040:	1080201c 	xori	r2,r2,128
  805044:	10bfe004 	addi	r2,r2,-128
  805048:	10000826 	beq	r2,zero,80506c <logic+0x4ba8>
  80504c:	e0bffd17 	ldw	r2,-12(fp)
  805050:	10804303 	ldbu	r2,268(r2)
  805054:	10803fcc 	andi	r2,r2,255
  805058:	1080201c 	xori	r2,r2,128
  80505c:	10bfe004 	addi	r2,r2,-128
  805060:	1000021e 	bne	r2,zero,80506c <logic+0x4ba8>
  805064:	00800044 	movi	r2,1
  805068:	00000106 	br	805070 <logic+0x4bac>
  80506c:	0005883a 	mov	r2,zero
  805070:	1007883a 	mov	r3,r2
  805074:	e0bffd17 	ldw	r2,-12(fp)
  805078:	10c02e85 	stb	r3,186(r2)
  d->_g107 = d->_g143 || d->_g119_e2 && !d->_cg145;
  80507c:	e0bffd17 	ldw	r2,-12(fp)
  805080:	10802dc3 	ldbu	r2,183(r2)
  805084:	10803fcc 	andi	r2,r2,255
  805088:	1080201c 	xori	r2,r2,128
  80508c:	10bfe004 	addi	r2,r2,-128
  805090:	10000c1e 	bne	r2,zero,8050c4 <logic+0x4c00>
  805094:	e0bffd17 	ldw	r2,-12(fp)
  805098:	10804c83 	ldbu	r2,306(r2)
  80509c:	10803fcc 	andi	r2,r2,255
  8050a0:	1080201c 	xori	r2,r2,128
  8050a4:	10bfe004 	addi	r2,r2,-128
  8050a8:	10000826 	beq	r2,zero,8050cc <logic+0x4c08>
  8050ac:	e0bffd17 	ldw	r2,-12(fp)
  8050b0:	10804383 	ldbu	r2,270(r2)
  8050b4:	10803fcc 	andi	r2,r2,255
  8050b8:	1080201c 	xori	r2,r2,128
  8050bc:	10bfe004 	addi	r2,r2,-128
  8050c0:	1000021e 	bne	r2,zero,8050cc <logic+0x4c08>
  8050c4:	00800044 	movi	r2,1
  8050c8:	00000106 	br	8050d0 <logic+0x4c0c>
  8050cc:	0005883a 	mov	r2,zero
  8050d0:	1007883a 	mov	r3,r2
  8050d4:	e0bffd17 	ldw	r2,-12(fp)
  8050d8:	10c027c5 	stb	r3,159(r2)
  d->_g114 = d->_pg116;
  8050dc:	e0bffd17 	ldw	r2,-12(fp)
  8050e0:	10c05843 	ldbu	r3,353(r2)
  8050e4:	e0bffd17 	ldw	r2,-12(fp)
  8050e8:	10c028c5 	stb	r3,163(r2)
  d->_cg150 = d->VP || d->VS;
  8050ec:	e0bffd17 	ldw	r2,-12(fp)
  8050f0:	10800bc3 	ldbu	r2,47(r2)
  8050f4:	10803fcc 	andi	r2,r2,255
  8050f8:	1080201c 	xori	r2,r2,128
  8050fc:	10bfe004 	addi	r2,r2,-128
  805100:	1000061e 	bne	r2,zero,80511c <logic+0x4c58>
  805104:	e0bffd17 	ldw	r2,-12(fp)
  805108:	10800a43 	ldbu	r2,41(r2)
  80510c:	10803fcc 	andi	r2,r2,255
  805110:	1080201c 	xori	r2,r2,128
  805114:	10bfe004 	addi	r2,r2,-128
  805118:	10000226 	beq	r2,zero,805124 <logic+0x4c60>
  80511c:	00800044 	movi	r2,1
  805120:	00000106 	br	805128 <logic+0x4c64>
  805124:	0005883a 	mov	r2,zero
  805128:	1007883a 	mov	r3,r2
  80512c:	e0bffd17 	ldw	r2,-12(fp)
  805130:	10c04405 	stb	r3,272(r2)
  d->_g116 = d->_GO || d->_g114 && !d->_cg150;
  805134:	e0bffd17 	ldw	r2,-12(fp)
  805138:	10803543 	ldbu	r2,213(r2)
  80513c:	10803fcc 	andi	r2,r2,255
  805140:	1080201c 	xori	r2,r2,128
  805144:	10bfe004 	addi	r2,r2,-128
  805148:	10000c1e 	bne	r2,zero,80517c <logic+0x4cb8>
  80514c:	e0bffd17 	ldw	r2,-12(fp)
  805150:	108028c3 	ldbu	r2,163(r2)
  805154:	10803fcc 	andi	r2,r2,255
  805158:	1080201c 	xori	r2,r2,128
  80515c:	10bfe004 	addi	r2,r2,-128
  805160:	10000826 	beq	r2,zero,805184 <logic+0x4cc0>
  805164:	e0bffd17 	ldw	r2,-12(fp)
  805168:	10804403 	ldbu	r2,272(r2)
  80516c:	10803fcc 	andi	r2,r2,255
  805170:	1080201c 	xori	r2,r2,128
  805174:	10bfe004 	addi	r2,r2,-128
  805178:	1000021e 	bne	r2,zero,805184 <logic+0x4cc0>
  80517c:	00800044 	movi	r2,1
  805180:	00000106 	br	805188 <logic+0x4cc4>
  805184:	0005883a 	mov	r2,zero
  805188:	1007883a 	mov	r3,r2
  80518c:	e0bffd17 	ldw	r2,-12(fp)
  805190:	10c02905 	stb	r3,164(r2)
  d->_g121 = d->_g114 && d->_cg150 || d->_g177 && d->_cg189 || d->_g180;
  805194:	e0bffd17 	ldw	r2,-12(fp)
  805198:	108028c3 	ldbu	r2,163(r2)
  80519c:	10803fcc 	andi	r2,r2,255
  8051a0:	1080201c 	xori	r2,r2,128
  8051a4:	10bfe004 	addi	r2,r2,-128
  8051a8:	10000626 	beq	r2,zero,8051c4 <logic+0x4d00>
  8051ac:	e0bffd17 	ldw	r2,-12(fp)
  8051b0:	10804403 	ldbu	r2,272(r2)
  8051b4:	10803fcc 	andi	r2,r2,255
  8051b8:	1080201c 	xori	r2,r2,128
  8051bc:	10bfe004 	addi	r2,r2,-128
  8051c0:	1000121e 	bne	r2,zero,80520c <logic+0x4d48>
  8051c4:	e0bffd17 	ldw	r2,-12(fp)
  8051c8:	10803283 	ldbu	r2,202(r2)
  8051cc:	10803fcc 	andi	r2,r2,255
  8051d0:	1080201c 	xori	r2,r2,128
  8051d4:	10bfe004 	addi	r2,r2,-128
  8051d8:	10000626 	beq	r2,zero,8051f4 <logic+0x4d30>
  8051dc:	e0bffd17 	ldw	r2,-12(fp)
  8051e0:	10804443 	ldbu	r2,273(r2)
  8051e4:	10803fcc 	andi	r2,r2,255
  8051e8:	1080201c 	xori	r2,r2,128
  8051ec:	10bfe004 	addi	r2,r2,-128
  8051f0:	1000061e 	bne	r2,zero,80520c <logic+0x4d48>
  8051f4:	e0bffd17 	ldw	r2,-12(fp)
  8051f8:	108032c3 	ldbu	r2,203(r2)
  8051fc:	10803fcc 	andi	r2,r2,255
  805200:	1080201c 	xori	r2,r2,128
  805204:	10bfe004 	addi	r2,r2,-128
  805208:	10000226 	beq	r2,zero,805214 <logic+0x4d50>
  80520c:	00800044 	movi	r2,1
  805210:	00000106 	br	805218 <logic+0x4d54>
  805214:	0005883a 	mov	r2,zero
  805218:	1007883a 	mov	r3,r2
  80521c:	e0bffd17 	ldw	r2,-12(fp)
  805220:	10c02a05 	stb	r3,168(r2)
  if (d->_g121) {
  805224:	e0bffd17 	ldw	r2,-12(fp)
  805228:	10802a03 	ldbu	r2,168(r2)
  80522c:	10803fcc 	andi	r2,r2,255
  805230:	1080201c 	xori	r2,r2,128
  805234:	10bfe004 	addi	r2,r2,-128
  805238:	10000926 	beq	r2,zero,805260 <logic+0x4d9c>
    d->_pacemaker_local_x2 = 0;
  80523c:	e0bffd17 	ldw	r2,-12(fp)
  805240:	10001515 	stw	zero,84(r2)
  805244:	10001615 	stw	zero,88(r2)
    d->_pacemaker_local__CFSterm2 = 0;
  805248:	e0bffd17 	ldw	r2,-12(fp)
  80524c:	10000d05 	stb	zero,52(r2)
    d->_pacemaker_local__Atrig6 = 0;
  805250:	e0bffd17 	ldw	r2,-12(fp)
  805254:	10000e45 	stb	zero,57(r2)
    d->_pacemaker_local__Atrig7 = 0;
  805258:	e0bffd17 	ldw	r2,-12(fp)
  80525c:	10001705 	stb	zero,92(r2)
  }
  d->_cg153 = d->_pacemaker_local__Atrig7;
  805260:	e0bffd17 	ldw	r2,-12(fp)
  805264:	10c01703 	ldbu	r3,92(r2)
  805268:	e0bffd17 	ldw	r2,-12(fp)
  80526c:	10c04485 	stb	r3,274(r2)
  d->_g125 = d->_g121 && !d->_cg153 || d->_g157 && !d->_cg157;
  805270:	e0bffd17 	ldw	r2,-12(fp)
  805274:	10802a03 	ldbu	r2,168(r2)
  805278:	10803fcc 	andi	r2,r2,255
  80527c:	1080201c 	xori	r2,r2,128
  805280:	10bfe004 	addi	r2,r2,-128
  805284:	10000626 	beq	r2,zero,8052a0 <logic+0x4ddc>
  805288:	e0bffd17 	ldw	r2,-12(fp)
  80528c:	10804483 	ldbu	r2,274(r2)
  805290:	10803fcc 	andi	r2,r2,255
  805294:	1080201c 	xori	r2,r2,128
  805298:	10bfe004 	addi	r2,r2,-128
  80529c:	10000c26 	beq	r2,zero,8052d0 <logic+0x4e0c>
  8052a0:	e0bffd17 	ldw	r2,-12(fp)
  8052a4:	10802f83 	ldbu	r2,190(r2)
  8052a8:	10803fcc 	andi	r2,r2,255
  8052ac:	1080201c 	xori	r2,r2,128
  8052b0:	10bfe004 	addi	r2,r2,-128
  8052b4:	10000826 	beq	r2,zero,8052d8 <logic+0x4e14>
  8052b8:	e0bffd17 	ldw	r2,-12(fp)
  8052bc:	108044c3 	ldbu	r2,275(r2)
  8052c0:	10803fcc 	andi	r2,r2,255
  8052c4:	1080201c 	xori	r2,r2,128
  8052c8:	10bfe004 	addi	r2,r2,-128
  8052cc:	1000021e 	bne	r2,zero,8052d8 <logic+0x4e14>
  8052d0:	00800044 	movi	r2,1
  8052d4:	00000106 	br	8052dc <logic+0x4e18>
  8052d8:	0005883a 	mov	r2,zero
  8052dc:	1007883a 	mov	r3,r2
  8052e0:	e0bffd17 	ldw	r2,-12(fp)
  8052e4:	10c02ac5 	stb	r3,171(r2)
  d->_cg158 = d->_pacemaker_local_x2 < LRI_VALUE;
  8052e8:	e13ffd17 	ldw	r4,-12(fp)
  8052ec:	20801517 	ldw	r2,84(r4)
  8052f0:	20c01617 	ldw	r3,88(r4)
  8052f4:	04000044 	movi	r16,1
  8052f8:	000d883a 	mov	r6,zero
  8052fc:	01d023b4 	movhi	r7,16526
  805300:	39ec0004 	addi	r7,r7,-20480
  805304:	1009883a 	mov	r4,r2
  805308:	180b883a 	mov	r5,r3
  80530c:	08065e40 	call	8065e4 <__ledf2>
  805310:	10000116 	blt	r2,zero,805318 <logic+0x4e54>
  805314:	0021883a 	mov	r16,zero
  805318:	8007883a 	mov	r3,r16
  80531c:	e0bffd17 	ldw	r2,-12(fp)
  805320:	10c04545 	stb	r3,277(r2)
  d->_g122 = d->_g121 && d->_cg158;
  805324:	e0bffd17 	ldw	r2,-12(fp)
  805328:	10802a03 	ldbu	r2,168(r2)
  80532c:	10803fcc 	andi	r2,r2,255
  805330:	1080201c 	xori	r2,r2,128
  805334:	10bfe004 	addi	r2,r2,-128
  805338:	10000826 	beq	r2,zero,80535c <logic+0x4e98>
  80533c:	e0bffd17 	ldw	r2,-12(fp)
  805340:	10804543 	ldbu	r2,277(r2)
  805344:	10803fcc 	andi	r2,r2,255
  805348:	1080201c 	xori	r2,r2,128
  80534c:	10bfe004 	addi	r2,r2,-128
  805350:	10000226 	beq	r2,zero,80535c <logic+0x4e98>
  805354:	00800044 	movi	r2,1
  805358:	00000106 	br	805360 <logic+0x4e9c>
  80535c:	0005883a 	mov	r2,zero
  805360:	1007883a 	mov	r3,r2
  805364:	e0bffd17 	ldw	r2,-12(fp)
  805368:	10c02a45 	stb	r3,169(r2)
  if (d->_g122) {
  80536c:	e0bffd17 	ldw	r2,-12(fp)
  805370:	10802a43 	ldbu	r2,169(r2)
  805374:	10803fcc 	andi	r2,r2,255
  805378:	1080201c 	xori	r2,r2,128
  80537c:	10bfe004 	addi	r2,r2,-128
  805380:	10002a26 	beq	r2,zero,80542c <logic+0x4f68>
    d->sleepT = (d->sleepT < (LRI_VALUE - d->_pacemaker_local_x2)) ? d->sleepT : (LRI_VALUE - d->_pacemaker_local_x2);
  805384:	e0bffd17 	ldw	r2,-12(fp)
  805388:	14000817 	ldw	r16,32(r2)
  80538c:	14400917 	ldw	r17,36(r2)
  805390:	e13ffd17 	ldw	r4,-12(fp)
  805394:	20801517 	ldw	r2,84(r4)
  805398:	20c01617 	ldw	r3,88(r4)
  80539c:	100d883a 	mov	r6,r2
  8053a0:	180f883a 	mov	r7,r3
  8053a4:	0009883a 	mov	r4,zero
  8053a8:	015023b4 	movhi	r5,16526
  8053ac:	296c0004 	addi	r5,r5,-20480
  8053b0:	0806df00 	call	806df0 <__subdf3>
  8053b4:	1009883a 	mov	r4,r2
  8053b8:	180b883a 	mov	r5,r3
  8053bc:	2005883a 	mov	r2,r4
  8053c0:	2807883a 	mov	r3,r5
  8053c4:	100d883a 	mov	r6,r2
  8053c8:	180f883a 	mov	r7,r3
  8053cc:	8009883a 	mov	r4,r16
